
crackme.exe:     формат файла pei-i386


Дизассемблирование раздела .text:

00401000 <.text>:
  401000:	83 ec 1c             	sub    $0x1c,%esp
  401003:	8b 44 24 20          	mov    0x20(%esp),%eax
  401007:	8b 00                	mov    (%eax),%eax
  401009:	8b 00                	mov    (%eax),%eax
  40100b:	3d 93 00 00 c0       	cmp    $0xc0000093,%eax
  401010:	74 1b                	je     40102d <.text+0x2d>
  401012:	77 4c                	ja     401060 <.text+0x60>
  401014:	3d 1d 00 00 c0       	cmp    $0xc000001d,%eax
  401019:	0f 84 cc 00 00 00    	je     4010eb <.text+0xeb>
  40101f:	76 7f                	jbe    4010a0 <.text+0xa0>
  401021:	05 73 ff ff 3f       	add    $0x3fffff73,%eax
  401026:	31 d2                	xor    %edx,%edx
  401028:	83 f8 04             	cmp    $0x4,%eax
  40102b:	77 27                	ja     401054 <.text+0x54>
  40102d:	c7 44 24 04 00 00 00 	movl   $0x0,0x4(%esp)
  401034:	00 
  401035:	c7 04 24 08 00 00 00 	movl   $0x8,(%esp)
  40103c:	e8 5b 2e 00 00       	call   403e9c <_signal>
  401041:	83 f8 01             	cmp    $0x1,%eax
  401044:	0f 84 d6 00 00 00    	je     401120 <.text+0x120>
  40104a:	85 c0                	test   %eax,%eax
  40104c:	0f 85 fe 00 00 00    	jne    401150 <.text+0x150>
  401052:	31 d2                	xor    %edx,%edx
  401054:	89 d0                	mov    %edx,%eax
  401056:	83 c4 1c             	add    $0x1c,%esp
  401059:	c2 04 00             	ret    $0x4
  40105c:	8d 74 26 00          	lea    0x0(%esi,%eiz,1),%esi
  401060:	3d 94 00 00 c0       	cmp    $0xc0000094,%eax
  401065:	75 79                	jne    4010e0 <.text+0xe0>
  401067:	c7 44 24 04 00 00 00 	movl   $0x0,0x4(%esp)
  40106e:	00 
  40106f:	c7 04 24 08 00 00 00 	movl   $0x8,(%esp)
  401076:	e8 21 2e 00 00       	call   403e9c <_signal>
  40107b:	83 f8 01             	cmp    $0x1,%eax
  40107e:	75 ca                	jne    40104a <.text+0x4a>
  401080:	c7 44 24 04 01 00 00 	movl   $0x1,0x4(%esp)
  401087:	00 
  401088:	c7 04 24 08 00 00 00 	movl   $0x8,(%esp)
  40108f:	e8 08 2e 00 00       	call   403e9c <_signal>
  401094:	ba ff ff ff ff       	mov    $0xffffffff,%edx
  401099:	eb b9                	jmp    401054 <.text+0x54>
  40109b:	8d 74 26 00          	lea    0x0(%esi,%eiz,1),%esi
  40109f:	90                   	nop
  4010a0:	3d 05 00 00 c0       	cmp    $0xc0000005,%eax
  4010a5:	75 ab                	jne    401052 <.text+0x52>
  4010a7:	c7 44 24 04 00 00 00 	movl   $0x0,0x4(%esp)
  4010ae:	00 
  4010af:	c7 04 24 0b 00 00 00 	movl   $0xb,(%esp)
  4010b6:	e8 e1 2d 00 00       	call   403e9c <_signal>
  4010bb:	83 f8 01             	cmp    $0x1,%eax
  4010be:	0f 84 9f 00 00 00    	je     401163 <.text+0x163>
  4010c4:	85 c0                	test   %eax,%eax
  4010c6:	74 8a                	je     401052 <.text+0x52>
  4010c8:	c7 04 24 0b 00 00 00 	movl   $0xb,(%esp)
  4010cf:	ff d0                	call   *%eax
  4010d1:	ba ff ff ff ff       	mov    $0xffffffff,%edx
  4010d6:	e9 79 ff ff ff       	jmp    401054 <.text+0x54>
  4010db:	8d 74 26 00          	lea    0x0(%esi,%eiz,1),%esi
  4010df:	90                   	nop
  4010e0:	3d 96 00 00 c0       	cmp    $0xc0000096,%eax
  4010e5:	0f 85 67 ff ff ff    	jne    401052 <.text+0x52>
  4010eb:	c7 44 24 04 00 00 00 	movl   $0x0,0x4(%esp)
  4010f2:	00 
  4010f3:	c7 04 24 04 00 00 00 	movl   $0x4,(%esp)
  4010fa:	e8 9d 2d 00 00       	call   403e9c <_signal>
  4010ff:	83 f8 01             	cmp    $0x1,%eax
  401102:	74 7b                	je     40117f <.text+0x17f>
  401104:	85 c0                	test   %eax,%eax
  401106:	0f 84 46 ff ff ff    	je     401052 <.text+0x52>
  40110c:	c7 04 24 04 00 00 00 	movl   $0x4,(%esp)
  401113:	ff d0                	call   *%eax
  401115:	ba ff ff ff ff       	mov    $0xffffffff,%edx
  40111a:	e9 35 ff ff ff       	jmp    401054 <.text+0x54>
  40111f:	90                   	nop
  401120:	c7 44 24 04 01 00 00 	movl   $0x1,0x4(%esp)
  401127:	00 
  401128:	c7 04 24 08 00 00 00 	movl   $0x8,(%esp)
  40112f:	e8 68 2d 00 00       	call   403e9c <_signal>
  401134:	c7 04 24 00 00 00 00 	movl   $0x0,(%esp)
  40113b:	e8 a0 0f 00 00       	call   4020e0 <_fesetenv>
  401140:	ba ff ff ff ff       	mov    $0xffffffff,%edx
  401145:	e9 0a ff ff ff       	jmp    401054 <.text+0x54>
  40114a:	8d b6 00 00 00 00    	lea    0x0(%esi),%esi
  401150:	c7 04 24 08 00 00 00 	movl   $0x8,(%esp)
  401157:	ff d0                	call   *%eax
  401159:	ba ff ff ff ff       	mov    $0xffffffff,%edx
  40115e:	e9 f1 fe ff ff       	jmp    401054 <.text+0x54>
  401163:	c7 44 24 04 01 00 00 	movl   $0x1,0x4(%esp)
  40116a:	00 
  40116b:	c7 04 24 0b 00 00 00 	movl   $0xb,(%esp)
  401172:	e8 25 2d 00 00       	call   403e9c <_signal>
  401177:	83 ca ff             	or     $0xffffffff,%edx
  40117a:	e9 d5 fe ff ff       	jmp    401054 <.text+0x54>
  40117f:	c7 44 24 04 01 00 00 	movl   $0x1,0x4(%esp)
  401186:	00 
  401187:	c7 04 24 04 00 00 00 	movl   $0x4,(%esp)
  40118e:	e8 09 2d 00 00       	call   403e9c <_signal>
  401193:	83 ca ff             	or     $0xffffffff,%edx
  401196:	e9 b9 fe ff ff       	jmp    401054 <.text+0x54>
  40119b:	8d 74 26 00          	lea    0x0(%esi,%eiz,1),%esi
  40119f:	90                   	nop
  4011a0:	53                   	push   %ebx
  4011a1:	83 ec 18             	sub    $0x18,%esp
  4011a4:	a1 14 62 40 00       	mov    0x406214,%eax
  4011a9:	85 c0                	test   %eax,%eax
  4011ab:	74 1c                	je     4011c9 <.text+0x1c9>
  4011ad:	c7 44 24 08 00 00 00 	movl   $0x0,0x8(%esp)
  4011b4:	00 
  4011b5:	c7 44 24 04 02 00 00 	movl   $0x2,0x4(%esp)
  4011bc:	00 
  4011bd:	c7 04 24 00 00 00 00 	movl   $0x0,(%esp)
  4011c4:	ff d0                	call   *%eax
  4011c6:	83 ec 0c             	sub    $0xc,%esp
  4011c9:	c7 04 24 00 10 40 00 	movl   $0x401000,(%esp)
  4011d0:	e8 87 2d 00 00       	call   403f5c <_SetUnhandledExceptionFilter@4>
  4011d5:	83 ec 04             	sub    $0x4,%esp
  4011d8:	e8 c3 06 00 00       	call   4018a0 <___cpu_features_init>
  4011dd:	a1 08 50 40 00       	mov    0x405008,%eax
  4011e2:	89 04 24             	mov    %eax,(%esp)
  4011e5:	e8 f6 0e 00 00       	call   4020e0 <_fesetenv>
  4011ea:	e8 11 03 00 00       	call   401500 <__setargv>
  4011ef:	a1 20 80 40 00       	mov    0x408020,%eax
  4011f4:	85 c0                	test   %eax,%eax
  4011f6:	75 4a                	jne    401242 <.text+0x242>
  4011f8:	e8 2f 2d 00 00       	call   403f2c <___p__fmode>
  4011fd:	8b 15 0c 50 40 00    	mov    0x40500c,%edx
  401203:	89 10                	mov    %edx,(%eax)
  401205:	e8 e6 0c 00 00       	call   401ef0 <__pei386_runtime_relocator>
  40120a:	83 e4 f0             	and    $0xfffffff0,%esp
  40120d:	e8 3e 08 00 00       	call   401a50 <___main>
  401212:	e8 1d 2d 00 00       	call   403f34 <___p__environ>
  401217:	8b 00                	mov    (%eax),%eax
  401219:	89 44 24 08          	mov    %eax,0x8(%esp)
  40121d:	a1 00 80 40 00       	mov    0x408000,%eax
  401222:	89 44 24 04          	mov    %eax,0x4(%esp)
  401226:	a1 04 80 40 00       	mov    0x408004,%eax
  40122b:	89 04 24             	mov    %eax,(%esp)
  40122e:	e8 dd 01 00 00       	call   401410 <_main>
  401233:	89 c3                	mov    %eax,%ebx
  401235:	e8 ea 2c 00 00       	call   403f24 <__cexit>
  40123a:	89 1c 24             	mov    %ebx,(%esp)
  40123d:	e8 7a 2d 00 00       	call   403fbc <_ExitProcess@4>
  401242:	8b 1d b8 91 40 00    	mov    0x4091b8,%ebx
  401248:	89 44 24 04          	mov    %eax,0x4(%esp)
  40124c:	a3 0c 50 40 00       	mov    %eax,0x40500c
  401251:	8b 43 10             	mov    0x10(%ebx),%eax
  401254:	89 04 24             	mov    %eax,(%esp)
  401257:	e8 a0 2c 00 00       	call   403efc <__setmode>
  40125c:	a1 20 80 40 00       	mov    0x408020,%eax
  401261:	89 44 24 04          	mov    %eax,0x4(%esp)
  401265:	8b 43 30             	mov    0x30(%ebx),%eax
  401268:	89 04 24             	mov    %eax,(%esp)
  40126b:	e8 8c 2c 00 00       	call   403efc <__setmode>
  401270:	a1 20 80 40 00       	mov    0x408020,%eax
  401275:	89 44 24 04          	mov    %eax,0x4(%esp)
  401279:	8b 43 50             	mov    0x50(%ebx),%eax
  40127c:	89 04 24             	mov    %eax,(%esp)
  40127f:	e8 78 2c 00 00       	call   403efc <__setmode>
  401284:	e9 6f ff ff ff       	jmp    4011f8 <.text+0x1f8>
  401289:	8d b4 26 00 00 00 00 	lea    0x0(%esi,%eiz,1),%esi

00401290 <__mingw32_init_mainargs>:
  401290:	83 ec 3c             	sub    $0x3c,%esp
  401293:	8d 44 24 2c          	lea    0x2c(%esp),%eax
  401297:	c7 44 24 04 00 80 40 	movl   $0x408000,0x4(%esp)
  40129e:	00 
  40129f:	89 44 24 10          	mov    %eax,0x10(%esp)
  4012a3:	a1 04 50 40 00       	mov    0x405004,%eax
  4012a8:	c7 04 24 04 80 40 00 	movl   $0x408004,(%esp)
  4012af:	83 e0 01             	and    $0x1,%eax
  4012b2:	c7 44 24 2c 00 00 00 	movl   $0x0,0x2c(%esp)
  4012b9:	00 
  4012ba:	89 44 24 0c          	mov    %eax,0xc(%esp)
  4012be:	8d 44 24 28          	lea    0x28(%esp),%eax
  4012c2:	89 44 24 08          	mov    %eax,0x8(%esp)
  4012c6:	e8 71 2c 00 00       	call   403f3c <___getmainargs>
  4012cb:	83 c4 3c             	add    $0x3c,%esp
  4012ce:	c3                   	ret    
  4012cf:	90                   	nop

004012d0 <_mainCRTStartup>:
  4012d0:	83 ec 1c             	sub    $0x1c,%esp
  4012d3:	c7 04 24 01 00 00 00 	movl   $0x1,(%esp)
  4012da:	ff 15 a4 91 40 00    	call   *0x4091a4
  4012e0:	e8 bb fe ff ff       	call   4011a0 <.text+0x1a0>
  4012e5:	8d b4 26 00 00 00 00 	lea    0x0(%esi,%eiz,1),%esi
  4012ec:	8d 74 26 00          	lea    0x0(%esi,%eiz,1),%esi

004012f0 <_WinMainCRTStartup>:
  4012f0:	83 ec 1c             	sub    $0x1c,%esp
  4012f3:	c7 04 24 02 00 00 00 	movl   $0x2,(%esp)
  4012fa:	ff 15 a4 91 40 00    	call   *0x4091a4
  401300:	e8 9b fe ff ff       	call   4011a0 <.text+0x1a0>
  401305:	8d b4 26 00 00 00 00 	lea    0x0(%esi,%eiz,1),%esi
  40130c:	8d 74 26 00          	lea    0x0(%esi,%eiz,1),%esi

00401310 <_atexit>:
  401310:	ff 25 d4 91 40 00    	jmp    *0x4091d4
  401316:	8d b4 26 00 00 00 00 	lea    0x0(%esi,%eiz,1),%esi
  40131d:	8d 76 00             	lea    0x0(%esi),%esi

00401320 <__onexit>:
  401320:	ff 25 c4 91 40 00    	jmp    *0x4091c4
  401326:	90                   	nop
  401327:	90                   	nop
  401328:	90                   	nop
  401329:	90                   	nop
  40132a:	90                   	nop
  40132b:	90                   	nop
  40132c:	90                   	nop
  40132d:	90                   	nop
  40132e:	90                   	nop
  40132f:	90                   	nop

00401330 <___gcc_register_frame>:
  401330:	55                   	push   %ebp
  401331:	89 e5                	mov    %esp,%ebp
  401333:	56                   	push   %esi
  401334:	53                   	push   %ebx
  401335:	83 ec 10             	sub    $0x10,%esp
  401338:	c7 04 24 00 60 40 00 	movl   $0x406000,(%esp)
  40133f:	e8 40 2c 00 00       	call   403f84 <_GetModuleHandleA@4>
  401344:	83 ec 04             	sub    $0x4,%esp
  401347:	85 c0                	test   %eax,%eax
  401349:	74 75                	je     4013c0 <___gcc_register_frame+0x90>
  40134b:	c7 04 24 00 60 40 00 	movl   $0x406000,(%esp)
  401352:	89 c3                	mov    %eax,%ebx
  401354:	e8 0b 2c 00 00       	call   403f64 <_LoadLibraryA@4>
  401359:	83 ec 04             	sub    $0x4,%esp
  40135c:	a3 70 80 40 00       	mov    %eax,0x408070
  401361:	c7 44 24 04 13 60 40 	movl   $0x406013,0x4(%esp)
  401368:	00 
  401369:	89 1c 24             	mov    %ebx,(%esp)
  40136c:	e8 0b 2c 00 00       	call   403f7c <_GetProcAddress@8>
  401371:	83 ec 08             	sub    $0x8,%esp
  401374:	89 c6                	mov    %eax,%esi
  401376:	c7 44 24 04 29 60 40 	movl   $0x406029,0x4(%esp)
  40137d:	00 
  40137e:	89 1c 24             	mov    %ebx,(%esp)
  401381:	e8 f6 2b 00 00       	call   403f7c <_GetProcAddress@8>
  401386:	a3 00 50 40 00       	mov    %eax,0x405000
  40138b:	83 ec 08             	sub    $0x8,%esp
  40138e:	85 f6                	test   %esi,%esi
  401390:	74 11                	je     4013a3 <___gcc_register_frame+0x73>
  401392:	c7 44 24 04 08 80 40 	movl   $0x408008,0x4(%esp)
  401399:	00 
  40139a:	c7 04 24 c8 70 40 00 	movl   $0x4070c8,(%esp)
  4013a1:	ff d6                	call   *%esi
  4013a3:	c7 04 24 e0 13 40 00 	movl   $0x4013e0,(%esp)
  4013aa:	e8 61 ff ff ff       	call   401310 <_atexit>
  4013af:	8d 65 f8             	lea    -0x8(%ebp),%esp
  4013b2:	5b                   	pop    %ebx
  4013b3:	5e                   	pop    %esi
  4013b4:	5d                   	pop    %ebp
  4013b5:	c3                   	ret    
  4013b6:	8d b4 26 00 00 00 00 	lea    0x0(%esi,%eiz,1),%esi
  4013bd:	8d 76 00             	lea    0x0(%esi),%esi
  4013c0:	c7 05 00 50 40 00 00 	movl   $0x0,0x405000
  4013c7:	00 00 00 
  4013ca:	be 00 00 00 00       	mov    $0x0,%esi
  4013cf:	eb bd                	jmp    40138e <___gcc_register_frame+0x5e>
  4013d1:	8d b4 26 00 00 00 00 	lea    0x0(%esi,%eiz,1),%esi
  4013d8:	8d b4 26 00 00 00 00 	lea    0x0(%esi,%eiz,1),%esi
  4013df:	90                   	nop

004013e0 <___gcc_deregister_frame>:
  4013e0:	55                   	push   %ebp
  4013e1:	89 e5                	mov    %esp,%ebp
  4013e3:	83 ec 18             	sub    $0x18,%esp
  4013e6:	a1 00 50 40 00       	mov    0x405000,%eax
  4013eb:	85 c0                	test   %eax,%eax
  4013ed:	74 09                	je     4013f8 <___gcc_deregister_frame+0x18>
  4013ef:	c7 04 24 c8 70 40 00 	movl   $0x4070c8,(%esp)
  4013f6:	ff d0                	call   *%eax
  4013f8:	a1 70 80 40 00       	mov    0x408070,%eax
  4013fd:	85 c0                	test   %eax,%eax
  4013ff:	74 0b                	je     40140c <___gcc_deregister_frame+0x2c>
  401401:	89 04 24             	mov    %eax,(%esp)
  401404:	e8 93 2b 00 00       	call   403f9c <_FreeLibrary@4>
  401409:	83 ec 04             	sub    $0x4,%esp
  40140c:	c9                   	leave  
  40140d:	c3                   	ret    
  40140e:	90                   	nop
  40140f:	90                   	nop

00401410 <_main>:
  401410:	55                   	push   %ebp
  401411:	89 e5                	mov    %esp,%ebp
  401413:	83 e4 f0             	and    $0xfffffff0,%esp
  401416:	83 ec 50             	sub    $0x50,%esp
  401419:	e8 32 06 00 00       	call   401a50 <___main>
  40141e:	c7 44 24 38 70 61 73 	movl   $0x73736170,0x38(%esp)
  401425:	73 
  401426:	c7 44 24 3c 77 6f 72 	movl   $0x64726f77,0x3c(%esp)
  40142d:	64 
  40142e:	c7 44 24 40 31 32 33 	movl   $0x333231,0x40(%esp)
  401435:	00 
  401436:	c7 04 24 44 60 40 00 	movl   $0x406044,(%esp)
  40143d:	e8 72 2a 00 00       	call   403eb4 <_puts>
  401442:	c7 44 24 4c 01 00 00 	movl   $0x1,0x4c(%esp)
  401449:	00 
  40144a:	e9 9e 00 00 00       	jmp    4014ed <_main+0xdd>
  40144f:	c7 04 24 5c 60 40 00 	movl   $0x40605c,(%esp)
  401456:	e8 59 2a 00 00       	call   403eb4 <_puts>
  40145b:	c7 04 24 97 60 40 00 	movl   $0x406097,(%esp)
  401462:	e8 55 2a 00 00       	call   403ebc <_printf>
  401467:	8d 44 24 1a          	lea    0x1a(%esp),%eax
  40146b:	89 44 24 04          	mov    %eax,0x4(%esp)
  40146f:	c7 04 24 ab 60 40 00 	movl   $0x4060ab,(%esp)
  401476:	e8 31 2a 00 00       	call   403eac <_scanf>
  40147b:	8d 44 24 1a          	lea    0x1a(%esp),%eax
  40147f:	89 44 24 04          	mov    %eax,0x4(%esp)
  401483:	8d 44 24 38          	lea    0x38(%esp),%eax
  401487:	89 04 24             	mov    %eax,(%esp)
  40148a:	e8 05 2a 00 00       	call   403e94 <_strcmp>
  40148f:	89 44 24 48          	mov    %eax,0x48(%esp)
  401493:	83 7c 24 48 00       	cmpl   $0x0,0x48(%esp)
  401498:	75 0e                	jne    4014a8 <_main+0x98>
  40149a:	c7 04 24 b0 60 40 00 	movl   $0x4060b0,(%esp)
  4014a1:	e8 0e 2a 00 00       	call   403eb4 <_puts>
  4014a6:	eb 50                	jmp    4014f8 <_main+0xe8>
  4014a8:	c7 04 24 d2 60 40 00 	movl   $0x4060d2,(%esp)
  4014af:	e8 00 2a 00 00       	call   403eb4 <_puts>
  4014b4:	b8 05 00 00 00       	mov    $0x5,%eax
  4014b9:	2b 44 24 4c          	sub    0x4c(%esp),%eax
  4014bd:	89 44 24 44          	mov    %eax,0x44(%esp)
  4014c1:	8b 44 24 44          	mov    0x44(%esp),%eax
  4014c5:	89 44 24 04          	mov    %eax,0x4(%esp)
  4014c9:	c7 04 24 df 60 40 00 	movl   $0x4060df,(%esp)
  4014d0:	e8 e7 29 00 00       	call   403ebc <_printf>
  4014d5:	83 7c 24 44 00       	cmpl   $0x0,0x44(%esp)
  4014da:	75 0c                	jne    4014e8 <_main+0xd8>
  4014dc:	c7 04 24 f0 60 40 00 	movl   $0x4060f0,(%esp)
  4014e3:	e8 d4 29 00 00       	call   403ebc <_printf>
  4014e8:	83 44 24 4c 01       	addl   $0x1,0x4c(%esp)
  4014ed:	83 7c 24 4c 05       	cmpl   $0x5,0x4c(%esp)
  4014f2:	0f 8e 57 ff ff ff    	jle    40144f <_main+0x3f>
  4014f8:	b8 00 00 00 00       	mov    $0x0,%eax
  4014fd:	c9                   	leave  
  4014fe:	c3                   	ret    
  4014ff:	90                   	nop

00401500 <__setargv>:
  401500:	55                   	push   %ebp
  401501:	89 e5                	mov    %esp,%ebp
  401503:	57                   	push   %edi
  401504:	56                   	push   %esi
  401505:	53                   	push   %ebx
  401506:	83 ec 4c             	sub    $0x4c,%esp
  401509:	f6 05 04 50 40 00 02 	testb  $0x2,0x405004
  401510:	75 0e                	jne    401520 <__setargv+0x20>
  401512:	e8 79 fd ff ff       	call   401290 <__mingw32_init_mainargs>
  401517:	8d 65 f4             	lea    -0xc(%ebp),%esp
  40151a:	5b                   	pop    %ebx
  40151b:	5e                   	pop    %esi
  40151c:	5f                   	pop    %edi
  40151d:	5d                   	pop    %ebp
  40151e:	c3                   	ret    
  40151f:	90                   	nop
  401520:	e8 6f 2a 00 00       	call   403f94 <_GetCommandLineA@0>
  401525:	89 65 c0             	mov    %esp,-0x40(%ebp)
  401528:	89 04 24             	mov    %eax,(%esp)
  40152b:	89 c3                	mov    %eax,%ebx
  40152d:	e8 52 29 00 00       	call   403e84 <_strlen>
  401532:	8d 44 00 11          	lea    0x11(%eax,%eax,1),%eax
  401536:	c1 e8 04             	shr    $0x4,%eax
  401539:	c1 e0 04             	shl    $0x4,%eax
  40153c:	e8 ef 28 00 00       	call   403e30 <___chkstk_ms>
  401541:	29 c4                	sub    %eax,%esp
  401543:	a1 04 50 40 00       	mov    0x405004,%eax
  401548:	c7 45 e4 00 00 00 00 	movl   $0x0,-0x1c(%ebp)
  40154f:	0f be 3b             	movsbl (%ebx),%edi
  401552:	8d 74 24 10          	lea    0x10(%esp),%esi
  401556:	25 00 44 00 00       	and    $0x4400,%eax
  40155b:	89 75 c8             	mov    %esi,-0x38(%ebp)
  40155e:	83 c8 10             	or     $0x10,%eax
  401561:	89 45 c4             	mov    %eax,-0x3c(%ebp)
  401564:	8d 43 01             	lea    0x1(%ebx),%eax
  401567:	89 fb                	mov    %edi,%ebx
  401569:	89 45 d4             	mov    %eax,-0x2c(%ebp)
  40156c:	85 ff                	test   %edi,%edi
  40156e:	0f 84 cc 00 00 00    	je     401640 <__setargv+0x140>
  401574:	c7 45 cc 00 00 00 00 	movl   $0x0,-0x34(%ebp)
  40157b:	89 f0                	mov    %esi,%eax
  40157d:	31 d2                	xor    %edx,%edx
  40157f:	c7 45 d0 00 00 00 00 	movl   $0x0,-0x30(%ebp)
  401586:	8d b4 26 00 00 00 00 	lea    0x0(%esi,%eiz,1),%esi
  40158d:	8d 76 00             	lea    0x0(%esi),%esi
  401590:	80 fb 3f             	cmp    $0x3f,%bl
  401593:	0f 8f 57 02 00 00    	jg     4017f0 <__setargv+0x2f0>
  401599:	80 fb 21             	cmp    $0x21,%bl
  40159c:	0f 8f 5e 01 00 00    	jg     401700 <__setargv+0x200>
  4015a2:	8d 34 10             	lea    (%eax,%edx,1),%esi
  4015a5:	85 d2                	test   %edx,%edx
  4015a7:	0f 84 d2 02 00 00    	je     40187f <__setargv+0x37f>
  4015ad:	8d 76 00             	lea    0x0(%esi),%esi
  4015b0:	83 c0 01             	add    $0x1,%eax
  4015b3:	c6 40 ff 5c          	movb   $0x5c,-0x1(%eax)
  4015b7:	39 f0                	cmp    %esi,%eax
  4015b9:	75 f5                	jne    4015b0 <__setargv+0xb0>
  4015bb:	8b 4d d0             	mov    -0x30(%ebp),%ecx
  4015be:	85 c9                	test   %ecx,%ecx
  4015c0:	0f 85 c2 00 00 00    	jne    401688 <__setargv+0x188>
  4015c6:	a1 98 91 40 00       	mov    0x409198,%eax
  4015cb:	83 38 01             	cmpl   $0x1,(%eax)
  4015ce:	0f 85 8c 00 00 00    	jne    401660 <__setargv+0x160>
  4015d4:	a1 c8 91 40 00       	mov    0x4091c8,%eax
  4015d9:	8b 00                	mov    (%eax),%eax
  4015db:	f6 04 78 40          	testb  $0x40,(%eax,%edi,2)
  4015df:	0f 84 93 00 00 00    	je     401678 <__setargv+0x178>
  4015e5:	39 75 c8             	cmp    %esi,-0x38(%ebp)
  4015e8:	0f 82 d2 00 00 00    	jb     4016c0 <__setargv+0x1c0>
  4015ee:	8b 55 cc             	mov    -0x34(%ebp),%edx
  4015f1:	85 d2                	test   %edx,%edx
  4015f3:	0f 85 c7 00 00 00    	jne    4016c0 <__setargv+0x1c0>
  4015f9:	c7 45 cc 00 00 00 00 	movl   $0x0,-0x34(%ebp)
  401600:	89 f0                	mov    %esi,%eax
  401602:	31 d2                	xor    %edx,%edx
  401604:	e9 86 00 00 00       	jmp    40168f <__setargv+0x18f>
  401609:	89 c2                	mov    %eax,%edx
  40160b:	8d 74 26 00          	lea    0x0(%esi,%eiz,1),%esi
  40160f:	90                   	nop
  401610:	39 55 c8             	cmp    %edx,-0x38(%ebp)
  401613:	72 07                	jb     40161c <__setargv+0x11c>
  401615:	8b 45 cc             	mov    -0x34(%ebp),%eax
  401618:	85 c0                	test   %eax,%eax
  40161a:	74 24                	je     401640 <__setargv+0x140>
  40161c:	8d 45 d8             	lea    -0x28(%ebp),%eax
  40161f:	c6 02 00             	movb   $0x0,(%edx)
  401622:	89 44 24 0c          	mov    %eax,0xc(%esp)
  401626:	c7 44 24 08 00 00 00 	movl   $0x0,0x8(%esp)
  40162d:	00 
  40162e:	8b 45 c4             	mov    -0x3c(%ebp),%eax
  401631:	89 44 24 04          	mov    %eax,0x4(%esp)
  401635:	8b 45 c8             	mov    -0x38(%ebp),%eax
  401638:	89 04 24             	mov    %eax,(%esp)
  40163b:	e8 f0 1a 00 00       	call   403130 <___mingw_glob>
  401640:	8b 45 dc             	mov    -0x24(%ebp),%eax
  401643:	a3 04 80 40 00       	mov    %eax,0x408004
  401648:	8b 45 e0             	mov    -0x20(%ebp),%eax
  40164b:	a3 00 80 40 00       	mov    %eax,0x408000
  401650:	8b 65 c0             	mov    -0x40(%ebp),%esp
  401653:	8d 65 f4             	lea    -0xc(%ebp),%esp
  401656:	5b                   	pop    %ebx
  401657:	5e                   	pop    %esi
  401658:	5f                   	pop    %edi
  401659:	5d                   	pop    %ebp
  40165a:	c3                   	ret    
  40165b:	8d 74 26 00          	lea    0x0(%esi,%eiz,1),%esi
  40165f:	90                   	nop
  401660:	c7 44 24 04 40 00 00 	movl   $0x40,0x4(%esp)
  401667:	00 
  401668:	89 3c 24             	mov    %edi,(%esp)
  40166b:	e8 9c 28 00 00       	call   403f0c <__isctype>
  401670:	85 c0                	test   %eax,%eax
  401672:	0f 85 6d ff ff ff    	jne    4015e5 <__setargv+0xe5>
  401678:	83 ff 09             	cmp    $0x9,%edi
  40167b:	0f 84 64 ff ff ff    	je     4015e5 <__setargv+0xe5>
  401681:	8d b4 26 00 00 00 00 	lea    0x0(%esi,%eiz,1),%esi
  401688:	88 1e                	mov    %bl,(%esi)
  40168a:	8d 46 01             	lea    0x1(%esi),%eax
  40168d:	31 d2                	xor    %edx,%edx
  40168f:	83 45 d4 01          	addl   $0x1,-0x2c(%ebp)
  401693:	8b 7d d4             	mov    -0x2c(%ebp),%edi
  401696:	0f be 7f ff          	movsbl -0x1(%edi),%edi
  40169a:	89 fb                	mov    %edi,%ebx
  40169c:	85 ff                	test   %edi,%edi
  40169e:	0f 85 ec fe ff ff    	jne    401590 <__setargv+0x90>
  4016a4:	85 d2                	test   %edx,%edx
  4016a6:	0f 84 5d ff ff ff    	je     401609 <__setargv+0x109>
  4016ac:	01 c2                	add    %eax,%edx
  4016ae:	66 90                	xchg   %ax,%ax
  4016b0:	83 c0 01             	add    $0x1,%eax
  4016b3:	c6 40 ff 5c          	movb   $0x5c,-0x1(%eax)
  4016b7:	39 d0                	cmp    %edx,%eax
  4016b9:	75 f5                	jne    4016b0 <__setargv+0x1b0>
  4016bb:	e9 50 ff ff ff       	jmp    401610 <__setargv+0x110>
  4016c0:	8d 45 d8             	lea    -0x28(%ebp),%eax
  4016c3:	c6 06 00             	movb   $0x0,(%esi)
  4016c6:	89 44 24 0c          	mov    %eax,0xc(%esp)
  4016ca:	c7 44 24 08 00 00 00 	movl   $0x0,0x8(%esp)
  4016d1:	00 
  4016d2:	8b 75 c4             	mov    -0x3c(%ebp),%esi
  4016d5:	89 74 24 04          	mov    %esi,0x4(%esp)
  4016d9:	8b 7d c8             	mov    -0x38(%ebp),%edi
  4016dc:	83 ce 01             	or     $0x1,%esi
  4016df:	89 3c 24             	mov    %edi,(%esp)
  4016e2:	e8 49 1a 00 00       	call   403130 <___mingw_glob>
  4016e7:	89 75 c4             	mov    %esi,-0x3c(%ebp)
  4016ea:	89 f8                	mov    %edi,%eax
  4016ec:	31 d2                	xor    %edx,%edx
  4016ee:	c7 45 cc 00 00 00 00 	movl   $0x0,-0x34(%ebp)
  4016f5:	eb 98                	jmp    40168f <__setargv+0x18f>
  4016f7:	8d b4 26 00 00 00 00 	lea    0x0(%esi,%eiz,1),%esi
  4016fe:	66 90                	xchg   %ax,%ax
  401700:	8d 4b de             	lea    -0x22(%ebx),%ecx
  401703:	80 f9 1d             	cmp    $0x1d,%cl
  401706:	0f 87 96 fe ff ff    	ja     4015a2 <__setargv+0xa2>
  40170c:	0f b6 c9             	movzbl %cl,%ecx
  40170f:	ff 24 8d 08 61 40 00 	jmp    *0x406108(,%ecx,4)
  401716:	8d 72 ff             	lea    -0x1(%edx),%esi
  401719:	83 ff 7f             	cmp    $0x7f,%edi
  40171c:	0f 94 c1             	sete   %cl
  40171f:	89 cf                	mov    %ecx,%edi
  401721:	8b 4d d0             	mov    -0x30(%ebp),%ecx
  401724:	85 c9                	test   %ecx,%ecx
  401726:	0f 95 c1             	setne  %cl
  401729:	09 f9                	or     %edi,%ecx
  40172b:	85 d2                	test   %edx,%edx
  40172d:	0f 84 53 01 00 00    	je     401886 <__setargv+0x386>
  401733:	8d 54 30 01          	lea    0x1(%eax,%esi,1),%edx
  401737:	8d b4 26 00 00 00 00 	lea    0x0(%esi,%eiz,1),%esi
  40173e:	66 90                	xchg   %ax,%ax
  401740:	83 c0 01             	add    $0x1,%eax
  401743:	c6 40 ff 5c          	movb   $0x5c,-0x1(%eax)
  401747:	39 d0                	cmp    %edx,%eax
  401749:	75 f5                	jne    401740 <__setargv+0x240>
  40174b:	89 d6                	mov    %edx,%esi
  40174d:	84 c9                	test   %cl,%cl
  40174f:	0f 84 33 ff ff ff    	je     401688 <__setargv+0x188>
  401755:	c6 02 7f             	movb   $0x7f,(%edx)
  401758:	8d 72 01             	lea    0x1(%edx),%esi
  40175b:	e9 28 ff ff ff       	jmp    401688 <__setargv+0x188>
  401760:	f6 05 04 50 40 00 10 	testb  $0x10,0x405004
  401767:	0f 84 35 fe ff ff    	je     4015a2 <__setargv+0xa2>
  40176d:	89 d1                	mov    %edx,%ecx
  40176f:	d1 f9                	sar    %ecx
  401771:	0f 84 1d 01 00 00    	je     401894 <__setargv+0x394>
  401777:	01 c1                	add    %eax,%ecx
  401779:	8d b4 26 00 00 00 00 	lea    0x0(%esi,%eiz,1),%esi
  401780:	83 c0 01             	add    $0x1,%eax
  401783:	c6 40 ff 5c          	movb   $0x5c,-0x1(%eax)
  401787:	39 c8                	cmp    %ecx,%eax
  401789:	75 f5                	jne    401780 <__setargv+0x280>
  40178b:	83 7d d0 22          	cmpl   $0x22,-0x30(%ebp)
  40178f:	74 09                	je     40179a <__setargv+0x29a>
  401791:	83 e2 01             	and    $0x1,%edx
  401794:	0f 84 d1 00 00 00    	je     40186b <__setargv+0x36b>
  40179a:	c6 01 27             	movb   $0x27,(%ecx)
  40179d:	8d 41 01             	lea    0x1(%ecx),%eax
  4017a0:	31 d2                	xor    %edx,%edx
  4017a2:	c7 45 cc 01 00 00 00 	movl   $0x1,-0x34(%ebp)
  4017a9:	e9 e1 fe ff ff       	jmp    40168f <__setargv+0x18f>
  4017ae:	89 d1                	mov    %edx,%ecx
  4017b0:	d1 f9                	sar    %ecx
  4017b2:	0f 84 d5 00 00 00    	je     40188d <__setargv+0x38d>
  4017b8:	01 c1                	add    %eax,%ecx
  4017ba:	8d b6 00 00 00 00    	lea    0x0(%esi),%esi
  4017c0:	83 c0 01             	add    $0x1,%eax
  4017c3:	c6 40 ff 5c          	movb   $0x5c,-0x1(%eax)
  4017c7:	39 c8                	cmp    %ecx,%eax
  4017c9:	75 f5                	jne    4017c0 <__setargv+0x2c0>
  4017cb:	83 7d d0 27          	cmpl   $0x27,-0x30(%ebp)
  4017cf:	74 77                	je     401848 <__setargv+0x348>
  4017d1:	83 e2 01             	and    $0x1,%edx
  4017d4:	75 72                	jne    401848 <__setargv+0x348>
  4017d6:	83 75 d0 22          	xorl   $0x22,-0x30(%ebp)
  4017da:	89 c8                	mov    %ecx,%eax
  4017dc:	31 d2                	xor    %edx,%edx
  4017de:	c7 45 cc 01 00 00 00 	movl   $0x1,-0x34(%ebp)
  4017e5:	e9 a5 fe ff ff       	jmp    40168f <__setargv+0x18f>
  4017ea:	8d b6 00 00 00 00    	lea    0x0(%esi),%esi
  4017f0:	80 fb 5a             	cmp    $0x5a,%bl
  4017f3:	0f 8e a9 fd ff ff    	jle    4015a2 <__setargv+0xa2>
  4017f9:	8d 4b a5             	lea    -0x5b(%ebx),%ecx
  4017fc:	80 f9 24             	cmp    $0x24,%cl
  4017ff:	0f 87 9d fd ff ff    	ja     4015a2 <__setargv+0xa2>
  401805:	0f b6 c9             	movzbl %cl,%ecx
  401808:	ff 24 8d 80 61 40 00 	jmp    *0x406180(,%ecx,4)
  40180f:	83 7d d0 27          	cmpl   $0x27,-0x30(%ebp)
  401813:	74 4b                	je     401860 <__setargv+0x360>
  401815:	83 c2 01             	add    $0x1,%edx
  401818:	e9 72 fe ff ff       	jmp    40168f <__setargv+0x18f>
  40181d:	8d 72 ff             	lea    -0x1(%edx),%esi
  401820:	f6 05 04 50 40 00 20 	testb  $0x20,0x405004
  401827:	0f 85 ec fe ff ff    	jne    401719 <__setargv+0x219>
  40182d:	b9 01 00 00 00       	mov    $0x1,%ecx
  401832:	85 d2                	test   %edx,%edx
  401834:	0f 85 f9 fe ff ff    	jne    401733 <__setargv+0x233>
  40183a:	89 c2                	mov    %eax,%edx
  40183c:	e9 14 ff ff ff       	jmp    401755 <__setargv+0x255>
  401841:	8d b4 26 00 00 00 00 	lea    0x0(%esi,%eiz,1),%esi
  401848:	c6 01 22             	movb   $0x22,(%ecx)
  40184b:	8d 41 01             	lea    0x1(%ecx),%eax
  40184e:	31 d2                	xor    %edx,%edx
  401850:	c7 45 cc 01 00 00 00 	movl   $0x1,-0x34(%ebp)
  401857:	e9 33 fe ff ff       	jmp    40168f <__setargv+0x18f>
  40185c:	8d 74 26 00          	lea    0x0(%esi,%eiz,1),%esi
  401860:	c6 00 5c             	movb   $0x5c,(%eax)
  401863:	83 c0 01             	add    $0x1,%eax
  401866:	e9 24 fe ff ff       	jmp    40168f <__setargv+0x18f>
  40186b:	83 75 d0 27          	xorl   $0x27,-0x30(%ebp)
  40186f:	89 c8                	mov    %ecx,%eax
  401871:	31 d2                	xor    %edx,%edx
  401873:	c7 45 cc 01 00 00 00 	movl   $0x1,-0x34(%ebp)
  40187a:	e9 10 fe ff ff       	jmp    40168f <__setargv+0x18f>
  40187f:	89 c6                	mov    %eax,%esi
  401881:	e9 35 fd ff ff       	jmp    4015bb <__setargv+0xbb>
  401886:	89 c2                	mov    %eax,%edx
  401888:	e9 be fe ff ff       	jmp    40174b <__setargv+0x24b>
  40188d:	89 c1                	mov    %eax,%ecx
  40188f:	e9 37 ff ff ff       	jmp    4017cb <__setargv+0x2cb>
  401894:	89 c1                	mov    %eax,%ecx
  401896:	e9 f0 fe ff ff       	jmp    40178b <__setargv+0x28b>
  40189b:	90                   	nop
  40189c:	90                   	nop
  40189d:	90                   	nop
  40189e:	90                   	nop
  40189f:	90                   	nop

004018a0 <___cpu_features_init>:
  4018a0:	9c                   	pushf  
  4018a1:	9c                   	pushf  
  4018a2:	58                   	pop    %eax
  4018a3:	89 c2                	mov    %eax,%edx
  4018a5:	35 00 00 20 00       	xor    $0x200000,%eax
  4018aa:	50                   	push   %eax
  4018ab:	9d                   	popf   
  4018ac:	9c                   	pushf  
  4018ad:	58                   	pop    %eax
  4018ae:	9d                   	popf   
  4018af:	31 d0                	xor    %edx,%eax
  4018b1:	a9 00 00 20 00       	test   $0x200000,%eax
  4018b6:	0f 84 e9 00 00 00    	je     4019a5 <___cpu_features_init+0x105>
  4018bc:	53                   	push   %ebx
  4018bd:	31 c0                	xor    %eax,%eax
  4018bf:	0f a2                	cpuid  
  4018c1:	85 c0                	test   %eax,%eax
  4018c3:	0f 84 db 00 00 00    	je     4019a4 <___cpu_features_init+0x104>
  4018c9:	b8 01 00 00 00       	mov    $0x1,%eax
  4018ce:	0f a2                	cpuid  
  4018d0:	31 c0                	xor    %eax,%eax
  4018d2:	f6 c6 01             	test   $0x1,%dh
  4018d5:	74 03                	je     4018da <___cpu_features_init+0x3a>
  4018d7:	83 c8 01             	or     $0x1,%eax
  4018da:	f6 c5 20             	test   $0x20,%ch
  4018dd:	74 05                	je     4018e4 <___cpu_features_init+0x44>
  4018df:	0d 80 00 00 00       	or     $0x80,%eax
  4018e4:	f6 c6 80             	test   $0x80,%dh
  4018e7:	74 03                	je     4018ec <___cpu_features_init+0x4c>
  4018e9:	83 c8 02             	or     $0x2,%eax
  4018ec:	f7 c2 00 00 80 00    	test   $0x800000,%edx
  4018f2:	74 03                	je     4018f7 <___cpu_features_init+0x57>
  4018f4:	83 c8 04             	or     $0x4,%eax
  4018f7:	f7 c2 00 00 00 01    	test   $0x1000000,%edx
  4018fd:	74 6d                	je     40196c <___cpu_features_init+0xcc>
  4018ff:	83 c8 08             	or     $0x8,%eax
  401902:	55                   	push   %ebp
  401903:	89 e5                	mov    %esp,%ebp
  401905:	81 ec 00 02 00 00    	sub    $0x200,%esp
  40190b:	83 e4 f0             	and    $0xfffffff0,%esp
  40190e:	0f ae 04 24          	fxsave (%esp)
  401912:	8b 9c 24 c8 00 00 00 	mov    0xc8(%esp),%ebx
  401919:	81 b4 24 c8 00 00 00 	xorl   $0x13c0de,0xc8(%esp)
  401920:	de c0 13 00 
  401924:	0f ae 0c 24          	fxrstor (%esp)
  401928:	89 9c 24 c8 00 00 00 	mov    %ebx,0xc8(%esp)
  40192f:	0f ae 04 24          	fxsave (%esp)
  401933:	87 9c 24 c8 00 00 00 	xchg   %ebx,0xc8(%esp)
  40193a:	0f ae 0c 24          	fxrstor (%esp)
  40193e:	33 9c 24 c8 00 00 00 	xor    0xc8(%esp),%ebx
  401945:	c9                   	leave  
  401946:	81 fb de c0 13 00    	cmp    $0x13c0de,%ebx
  40194c:	75 1e                	jne    40196c <___cpu_features_init+0xcc>
  40194e:	f7 c2 00 00 00 02    	test   $0x2000000,%edx
  401954:	74 03                	je     401959 <___cpu_features_init+0xb9>
  401956:	83 c8 10             	or     $0x10,%eax
  401959:	f7 c2 00 00 00 04    	test   $0x4000000,%edx
  40195f:	74 03                	je     401964 <___cpu_features_init+0xc4>
  401961:	83 c8 20             	or     $0x20,%eax
  401964:	f6 c1 01             	test   $0x1,%cl
  401967:	74 03                	je     40196c <___cpu_features_init+0xcc>
  401969:	83 c8 40             	or     $0x40,%eax
  40196c:	a3 24 80 40 00       	mov    %eax,0x408024
  401971:	b8 00 00 00 80       	mov    $0x80000000,%eax
  401976:	0f a2                	cpuid  
  401978:	3d 00 00 00 80       	cmp    $0x80000000,%eax
  40197d:	76 25                	jbe    4019a4 <___cpu_features_init+0x104>
  40197f:	b8 01 00 00 80       	mov    $0x80000001,%eax
  401984:	0f a2                	cpuid  
  401986:	31 c0                	xor    %eax,%eax
  401988:	85 d2                	test   %edx,%edx
  40198a:	79 05                	jns    401991 <___cpu_features_init+0xf1>
  40198c:	b8 00 01 00 00       	mov    $0x100,%eax
  401991:	f7 c2 00 00 00 40    	test   $0x40000000,%edx
  401997:	74 05                	je     40199e <___cpu_features_init+0xfe>
  401999:	0d 00 02 00 00       	or     $0x200,%eax
  40199e:	09 05 24 80 40 00    	or     %eax,0x408024
  4019a4:	5b                   	pop    %ebx
  4019a5:	f3 c3                	repz ret 
  4019a7:	90                   	nop
  4019a8:	90                   	nop
  4019a9:	90                   	nop
  4019aa:	90                   	nop
  4019ab:	90                   	nop
  4019ac:	90                   	nop
  4019ad:	90                   	nop
  4019ae:	90                   	nop
  4019af:	90                   	nop

004019b0 <___do_global_dtors>:
  4019b0:	a1 10 50 40 00       	mov    0x405010,%eax
  4019b5:	8b 00                	mov    (%eax),%eax
  4019b7:	85 c0                	test   %eax,%eax
  4019b9:	74 25                	je     4019e0 <___do_global_dtors+0x30>
  4019bb:	83 ec 0c             	sub    $0xc,%esp
  4019be:	66 90                	xchg   %ax,%ax
  4019c0:	ff d0                	call   *%eax
  4019c2:	a1 10 50 40 00       	mov    0x405010,%eax
  4019c7:	8d 50 04             	lea    0x4(%eax),%edx
  4019ca:	8b 40 04             	mov    0x4(%eax),%eax
  4019cd:	89 15 10 50 40 00    	mov    %edx,0x405010
  4019d3:	85 c0                	test   %eax,%eax
  4019d5:	75 e9                	jne    4019c0 <___do_global_dtors+0x10>
  4019d7:	83 c4 0c             	add    $0xc,%esp
  4019da:	c3                   	ret    
  4019db:	8d 74 26 00          	lea    0x0(%esi,%eiz,1),%esi
  4019df:	90                   	nop
  4019e0:	c3                   	ret    
  4019e1:	8d b4 26 00 00 00 00 	lea    0x0(%esi,%eiz,1),%esi
  4019e8:	8d b4 26 00 00 00 00 	lea    0x0(%esi,%eiz,1),%esi
  4019ef:	90                   	nop

004019f0 <___do_global_ctors>:
  4019f0:	53                   	push   %ebx
  4019f1:	83 ec 18             	sub    $0x18,%esp
  4019f4:	8b 1d f0 3f 40 00    	mov    0x403ff0,%ebx
  4019fa:	83 fb ff             	cmp    $0xffffffff,%ebx
  4019fd:	74 29                	je     401a28 <___do_global_ctors+0x38>
  4019ff:	85 db                	test   %ebx,%ebx
  401a01:	74 11                	je     401a14 <___do_global_ctors+0x24>
  401a03:	8d 74 26 00          	lea    0x0(%esi,%eiz,1),%esi
  401a07:	90                   	nop
  401a08:	ff 14 9d f0 3f 40 00 	call   *0x403ff0(,%ebx,4)
  401a0f:	83 eb 01             	sub    $0x1,%ebx
  401a12:	75 f4                	jne    401a08 <___do_global_ctors+0x18>
  401a14:	c7 04 24 b0 19 40 00 	movl   $0x4019b0,(%esp)
  401a1b:	e8 f0 f8 ff ff       	call   401310 <_atexit>
  401a20:	83 c4 18             	add    $0x18,%esp
  401a23:	5b                   	pop    %ebx
  401a24:	c3                   	ret    
  401a25:	8d 76 00             	lea    0x0(%esi),%esi
  401a28:	31 c0                	xor    %eax,%eax
  401a2a:	8d b6 00 00 00 00    	lea    0x0(%esi),%esi
  401a30:	89 c3                	mov    %eax,%ebx
  401a32:	83 c0 01             	add    $0x1,%eax
  401a35:	8b 14 85 f0 3f 40 00 	mov    0x403ff0(,%eax,4),%edx
  401a3c:	85 d2                	test   %edx,%edx
  401a3e:	75 f0                	jne    401a30 <___do_global_ctors+0x40>
  401a40:	eb bd                	jmp    4019ff <___do_global_ctors+0xf>
  401a42:	8d b4 26 00 00 00 00 	lea    0x0(%esi,%eiz,1),%esi
  401a49:	8d b4 26 00 00 00 00 	lea    0x0(%esi,%eiz,1),%esi

00401a50 <___main>:
  401a50:	a1 28 80 40 00       	mov    0x408028,%eax
  401a55:	85 c0                	test   %eax,%eax
  401a57:	74 07                	je     401a60 <___main+0x10>
  401a59:	c3                   	ret    
  401a5a:	8d b6 00 00 00 00    	lea    0x0(%esi),%esi
  401a60:	c7 05 28 80 40 00 01 	movl   $0x1,0x408028
  401a67:	00 00 00 
  401a6a:	eb 84                	jmp    4019f0 <___do_global_ctors>
  401a6c:	90                   	nop
  401a6d:	90                   	nop
  401a6e:	90                   	nop
  401a6f:	90                   	nop

00401a70 <.text>:
  401a70:	83 ec 1c             	sub    $0x1c,%esp
  401a73:	8b 44 24 24          	mov    0x24(%esp),%eax
  401a77:	83 f8 03             	cmp    $0x3,%eax
  401a7a:	74 14                	je     401a90 <.text+0x20>
  401a7c:	85 c0                	test   %eax,%eax
  401a7e:	74 10                	je     401a90 <.text+0x20>
  401a80:	b8 01 00 00 00       	mov    $0x1,%eax
  401a85:	83 c4 1c             	add    $0x1c,%esp
  401a88:	c2 0c 00             	ret    $0xc
  401a8b:	8d 74 26 00          	lea    0x0(%esi,%eiz,1),%esi
  401a8f:	90                   	nop
  401a90:	89 44 24 04          	mov    %eax,0x4(%esp)
  401a94:	8b 54 24 28          	mov    0x28(%esp),%edx
  401a98:	8b 44 24 20          	mov    0x20(%esp),%eax
  401a9c:	89 54 24 08          	mov    %edx,0x8(%esp)
  401aa0:	89 04 24             	mov    %eax,(%esp)
  401aa3:	e8 48 02 00 00       	call   401cf0 <___mingw_TLScallback>
  401aa8:	b8 01 00 00 00       	mov    $0x1,%eax
  401aad:	83 c4 1c             	add    $0x1c,%esp
  401ab0:	c2 0c 00             	ret    $0xc
  401ab3:	8d b4 26 00 00 00 00 	lea    0x0(%esi,%eiz,1),%esi
  401aba:	8d b6 00 00 00 00    	lea    0x0(%esi),%esi

00401ac0 <___dyn_tls_init@12>:
  401ac0:	56                   	push   %esi
  401ac1:	53                   	push   %ebx
  401ac2:	83 ec 14             	sub    $0x14,%esp
  401ac5:	83 3d 64 80 40 00 02 	cmpl   $0x2,0x408064
  401acc:	8b 44 24 24          	mov    0x24(%esp),%eax
  401ad0:	74 0a                	je     401adc <___dyn_tls_init@12+0x1c>
  401ad2:	c7 05 64 80 40 00 02 	movl   $0x2,0x408064
  401ad9:	00 00 00 
  401adc:	83 f8 02             	cmp    $0x2,%eax
  401adf:	74 17                	je     401af8 <___dyn_tls_init@12+0x38>
  401ae1:	83 f8 01             	cmp    $0x1,%eax
  401ae4:	74 52                	je     401b38 <___dyn_tls_init@12+0x78>
  401ae6:	83 c4 14             	add    $0x14,%esp
  401ae9:	b8 01 00 00 00       	mov    $0x1,%eax
  401aee:	5b                   	pop    %ebx
  401aef:	5e                   	pop    %esi
  401af0:	c2 0c 00             	ret    $0xc
  401af3:	8d 74 26 00          	lea    0x0(%esi,%eiz,1),%esi
  401af7:	90                   	nop
  401af8:	b8 14 a0 40 00       	mov    $0x40a014,%eax
  401afd:	2d 14 a0 40 00       	sub    $0x40a014,%eax
  401b02:	89 c6                	mov    %eax,%esi
  401b04:	c1 fe 02             	sar    $0x2,%esi
  401b07:	85 c0                	test   %eax,%eax
  401b09:	7e db                	jle    401ae6 <___dyn_tls_init@12+0x26>
  401b0b:	31 db                	xor    %ebx,%ebx
  401b0d:	8d 76 00             	lea    0x0(%esi),%esi
  401b10:	8b 04 9d 14 a0 40 00 	mov    0x40a014(,%ebx,4),%eax
  401b17:	85 c0                	test   %eax,%eax
  401b19:	74 02                	je     401b1d <___dyn_tls_init@12+0x5d>
  401b1b:	ff d0                	call   *%eax
  401b1d:	83 c3 01             	add    $0x1,%ebx
  401b20:	39 de                	cmp    %ebx,%esi
  401b22:	7f ec                	jg     401b10 <___dyn_tls_init@12+0x50>
  401b24:	83 c4 14             	add    $0x14,%esp
  401b27:	b8 01 00 00 00       	mov    $0x1,%eax
  401b2c:	5b                   	pop    %ebx
  401b2d:	5e                   	pop    %esi
  401b2e:	c2 0c 00             	ret    $0xc
  401b31:	8d b4 26 00 00 00 00 	lea    0x0(%esi,%eiz,1),%esi
  401b38:	8b 44 24 28          	mov    0x28(%esp),%eax
  401b3c:	c7 44 24 04 01 00 00 	movl   $0x1,0x4(%esp)
  401b43:	00 
  401b44:	89 44 24 08          	mov    %eax,0x8(%esp)
  401b48:	8b 44 24 20          	mov    0x20(%esp),%eax
  401b4c:	89 04 24             	mov    %eax,(%esp)
  401b4f:	e8 9c 01 00 00       	call   401cf0 <___mingw_TLScallback>
  401b54:	83 c4 14             	add    $0x14,%esp
  401b57:	b8 01 00 00 00       	mov    $0x1,%eax
  401b5c:	5b                   	pop    %ebx
  401b5d:	5e                   	pop    %esi
  401b5e:	c2 0c 00             	ret    $0xc
  401b61:	8d b4 26 00 00 00 00 	lea    0x0(%esi,%eiz,1),%esi
  401b68:	8d b4 26 00 00 00 00 	lea    0x0(%esi,%eiz,1),%esi
  401b6f:	90                   	nop

00401b70 <___tlregdtor>:
  401b70:	31 c0                	xor    %eax,%eax
  401b72:	c3                   	ret    
  401b73:	90                   	nop
  401b74:	90                   	nop
  401b75:	90                   	nop
  401b76:	90                   	nop
  401b77:	90                   	nop
  401b78:	90                   	nop
  401b79:	90                   	nop
  401b7a:	90                   	nop
  401b7b:	90                   	nop
  401b7c:	90                   	nop
  401b7d:	90                   	nop
  401b7e:	90                   	nop
  401b7f:	90                   	nop

00401b80 <.text>:
  401b80:	56                   	push   %esi
  401b81:	53                   	push   %ebx
  401b82:	83 ec 14             	sub    $0x14,%esp
  401b85:	c7 04 24 44 80 40 00 	movl   $0x408044,(%esp)
  401b8c:	e8 33 24 00 00       	call   403fc4 <_EnterCriticalSection@4>
  401b91:	8b 1d 3c 80 40 00    	mov    0x40803c,%ebx
  401b97:	83 ec 04             	sub    $0x4,%esp
  401b9a:	85 db                	test   %ebx,%ebx
  401b9c:	74 2d                	je     401bcb <.text+0x4b>
  401b9e:	66 90                	xchg   %ax,%ax
  401ba0:	8b 03                	mov    (%ebx),%eax
  401ba2:	89 04 24             	mov    %eax,(%esp)
  401ba5:	e8 aa 23 00 00       	call   403f54 <_TlsGetValue@4>
  401baa:	83 ec 04             	sub    $0x4,%esp
  401bad:	89 c6                	mov    %eax,%esi
  401baf:	e8 d8 23 00 00       	call   403f8c <_GetLastError@0>
  401bb4:	85 c0                	test   %eax,%eax
  401bb6:	75 0c                	jne    401bc4 <.text+0x44>
  401bb8:	85 f6                	test   %esi,%esi
  401bba:	74 08                	je     401bc4 <.text+0x44>
  401bbc:	8b 43 04             	mov    0x4(%ebx),%eax
  401bbf:	89 34 24             	mov    %esi,(%esp)
  401bc2:	ff d0                	call   *%eax
  401bc4:	8b 5b 08             	mov    0x8(%ebx),%ebx
  401bc7:	85 db                	test   %ebx,%ebx
  401bc9:	75 d5                	jne    401ba0 <.text+0x20>
  401bcb:	c7 04 24 44 80 40 00 	movl   $0x408044,(%esp)
  401bd2:	e8 95 23 00 00       	call   403f6c <_LeaveCriticalSection@4>
  401bd7:	83 ec 04             	sub    $0x4,%esp
  401bda:	83 c4 14             	add    $0x14,%esp
  401bdd:	5b                   	pop    %ebx
  401bde:	5e                   	pop    %esi
  401bdf:	c3                   	ret    

00401be0 <____w64_mingwthr_add_key_dtor>:
  401be0:	a1 40 80 40 00       	mov    0x408040,%eax
  401be5:	85 c0                	test   %eax,%eax
  401be7:	75 07                	jne    401bf0 <____w64_mingwthr_add_key_dtor+0x10>
  401be9:	c3                   	ret    
  401bea:	8d b6 00 00 00 00    	lea    0x0(%esi),%esi
  401bf0:	53                   	push   %ebx
  401bf1:	83 ec 18             	sub    $0x18,%esp
  401bf4:	c7 44 24 04 0c 00 00 	movl   $0xc,0x4(%esp)
  401bfb:	00 
  401bfc:	c7 04 24 01 00 00 00 	movl   $0x1,(%esp)
  401c03:	e8 e4 22 00 00       	call   403eec <_calloc>
  401c08:	89 c3                	mov    %eax,%ebx
  401c0a:	85 c0                	test   %eax,%eax
  401c0c:	74 40                	je     401c4e <____w64_mingwthr_add_key_dtor+0x6e>
  401c0e:	8b 44 24 20          	mov    0x20(%esp),%eax
  401c12:	c7 04 24 44 80 40 00 	movl   $0x408044,(%esp)
  401c19:	89 03                	mov    %eax,(%ebx)
  401c1b:	8b 44 24 24          	mov    0x24(%esp),%eax
  401c1f:	89 43 04             	mov    %eax,0x4(%ebx)
  401c22:	e8 9d 23 00 00       	call   403fc4 <_EnterCriticalSection@4>
  401c27:	a1 3c 80 40 00       	mov    0x40803c,%eax
  401c2c:	89 1d 3c 80 40 00    	mov    %ebx,0x40803c
  401c32:	83 ec 04             	sub    $0x4,%esp
  401c35:	c7 04 24 44 80 40 00 	movl   $0x408044,(%esp)
  401c3c:	89 43 08             	mov    %eax,0x8(%ebx)
  401c3f:	e8 28 23 00 00       	call   403f6c <_LeaveCriticalSection@4>
  401c44:	31 c0                	xor    %eax,%eax
  401c46:	83 ec 04             	sub    $0x4,%esp
  401c49:	83 c4 18             	add    $0x18,%esp
  401c4c:	5b                   	pop    %ebx
  401c4d:	c3                   	ret    
  401c4e:	83 c8 ff             	or     $0xffffffff,%eax
  401c51:	eb f6                	jmp    401c49 <____w64_mingwthr_add_key_dtor+0x69>
  401c53:	8d b4 26 00 00 00 00 	lea    0x0(%esi,%eiz,1),%esi
  401c5a:	8d b6 00 00 00 00    	lea    0x0(%esi),%esi

00401c60 <____w64_mingwthr_remove_key_dtor>:
  401c60:	53                   	push   %ebx
  401c61:	83 ec 18             	sub    $0x18,%esp
  401c64:	a1 40 80 40 00       	mov    0x408040,%eax
  401c69:	8b 5c 24 20          	mov    0x20(%esp),%ebx
  401c6d:	85 c0                	test   %eax,%eax
  401c6f:	75 0f                	jne    401c80 <____w64_mingwthr_remove_key_dtor+0x20>
  401c71:	83 c4 18             	add    $0x18,%esp
  401c74:	31 c0                	xor    %eax,%eax
  401c76:	5b                   	pop    %ebx
  401c77:	c3                   	ret    
  401c78:	8d b4 26 00 00 00 00 	lea    0x0(%esi,%eiz,1),%esi
  401c7f:	90                   	nop
  401c80:	c7 04 24 44 80 40 00 	movl   $0x408044,(%esp)
  401c87:	e8 38 23 00 00       	call   403fc4 <_EnterCriticalSection@4>
  401c8c:	a1 3c 80 40 00       	mov    0x40803c,%eax
  401c91:	83 ec 04             	sub    $0x4,%esp
  401c94:	85 c0                	test   %eax,%eax
  401c96:	74 28                	je     401cc0 <____w64_mingwthr_remove_key_dtor+0x60>
  401c98:	31 c9                	xor    %ecx,%ecx
  401c9a:	eb 0c                	jmp    401ca8 <____w64_mingwthr_remove_key_dtor+0x48>
  401c9c:	8d 74 26 00          	lea    0x0(%esi,%eiz,1),%esi
  401ca0:	89 c1                	mov    %eax,%ecx
  401ca2:	85 d2                	test   %edx,%edx
  401ca4:	74 1a                	je     401cc0 <____w64_mingwthr_remove_key_dtor+0x60>
  401ca6:	89 d0                	mov    %edx,%eax
  401ca8:	8b 10                	mov    (%eax),%edx
  401caa:	39 da                	cmp    %ebx,%edx
  401cac:	8b 50 08             	mov    0x8(%eax),%edx
  401caf:	75 ef                	jne    401ca0 <____w64_mingwthr_remove_key_dtor+0x40>
  401cb1:	85 c9                	test   %ecx,%ecx
  401cb3:	74 2b                	je     401ce0 <____w64_mingwthr_remove_key_dtor+0x80>
  401cb5:	89 51 08             	mov    %edx,0x8(%ecx)
  401cb8:	89 04 24             	mov    %eax,(%esp)
  401cbb:	e8 a0 04 00 00       	call   402160 <___mingw_aligned_free>
  401cc0:	c7 04 24 44 80 40 00 	movl   $0x408044,(%esp)
  401cc7:	e8 a0 22 00 00       	call   403f6c <_LeaveCriticalSection@4>
  401ccc:	31 c0                	xor    %eax,%eax
  401cce:	83 ec 04             	sub    $0x4,%esp
  401cd1:	83 c4 18             	add    $0x18,%esp
  401cd4:	5b                   	pop    %ebx
  401cd5:	c3                   	ret    
  401cd6:	8d b4 26 00 00 00 00 	lea    0x0(%esi,%eiz,1),%esi
  401cdd:	8d 76 00             	lea    0x0(%esi),%esi
  401ce0:	89 15 3c 80 40 00    	mov    %edx,0x40803c
  401ce6:	eb d0                	jmp    401cb8 <____w64_mingwthr_remove_key_dtor+0x58>
  401ce8:	8d b4 26 00 00 00 00 	lea    0x0(%esi,%eiz,1),%esi
  401cef:	90                   	nop

00401cf0 <___mingw_TLScallback>:
  401cf0:	83 ec 1c             	sub    $0x1c,%esp
  401cf3:	8b 44 24 24          	mov    0x24(%esp),%eax
  401cf7:	83 f8 01             	cmp    $0x1,%eax
  401cfa:	74 14                	je     401d10 <___mingw_TLScallback+0x20>
  401cfc:	83 f8 03             	cmp    $0x3,%eax
  401cff:	74 5f                	je     401d60 <___mingw_TLScallback+0x70>
  401d01:	85 c0                	test   %eax,%eax
  401d03:	74 2b                	je     401d30 <___mingw_TLScallback+0x40>
  401d05:	b8 01 00 00 00       	mov    $0x1,%eax
  401d0a:	83 c4 1c             	add    $0x1c,%esp
  401d0d:	c3                   	ret    
  401d0e:	66 90                	xchg   %ax,%ax
  401d10:	a1 40 80 40 00       	mov    0x408040,%eax
  401d15:	85 c0                	test   %eax,%eax
  401d17:	74 7f                	je     401d98 <___mingw_TLScallback+0xa8>
  401d19:	c7 05 40 80 40 00 01 	movl   $0x1,0x408040
  401d20:	00 00 00 
  401d23:	b8 01 00 00 00       	mov    $0x1,%eax
  401d28:	83 c4 1c             	add    $0x1c,%esp
  401d2b:	c3                   	ret    
  401d2c:	8d 74 26 00          	lea    0x0(%esi,%eiz,1),%esi
  401d30:	a1 40 80 40 00       	mov    0x408040,%eax
  401d35:	85 c0                	test   %eax,%eax
  401d37:	75 47                	jne    401d80 <___mingw_TLScallback+0x90>
  401d39:	a1 40 80 40 00       	mov    0x408040,%eax
  401d3e:	83 f8 01             	cmp    $0x1,%eax
  401d41:	75 c2                	jne    401d05 <___mingw_TLScallback+0x15>
  401d43:	c7 04 24 44 80 40 00 	movl   $0x408044,(%esp)
  401d4a:	c7 05 40 80 40 00 00 	movl   $0x0,0x408040
  401d51:	00 00 00 
  401d54:	e8 73 22 00 00       	call   403fcc <_DeleteCriticalSection@4>
  401d59:	83 ec 04             	sub    $0x4,%esp
  401d5c:	eb a7                	jmp    401d05 <___mingw_TLScallback+0x15>
  401d5e:	66 90                	xchg   %ax,%ax
  401d60:	a1 40 80 40 00       	mov    0x408040,%eax
  401d65:	85 c0                	test   %eax,%eax
  401d67:	74 9c                	je     401d05 <___mingw_TLScallback+0x15>
  401d69:	e8 12 fe ff ff       	call   401b80 <.text>
  401d6e:	b8 01 00 00 00       	mov    $0x1,%eax
  401d73:	83 c4 1c             	add    $0x1c,%esp
  401d76:	c3                   	ret    
  401d77:	8d b4 26 00 00 00 00 	lea    0x0(%esi,%eiz,1),%esi
  401d7e:	66 90                	xchg   %ax,%ax
  401d80:	e8 fb fd ff ff       	call   401b80 <.text>
  401d85:	a1 40 80 40 00       	mov    0x408040,%eax
  401d8a:	83 f8 01             	cmp    $0x1,%eax
  401d8d:	0f 85 72 ff ff ff    	jne    401d05 <___mingw_TLScallback+0x15>
  401d93:	eb ae                	jmp    401d43 <___mingw_TLScallback+0x53>
  401d95:	8d 76 00             	lea    0x0(%esi),%esi
  401d98:	c7 04 24 44 80 40 00 	movl   $0x408044,(%esp)
  401d9f:	e8 d0 21 00 00       	call   403f74 <_InitializeCriticalSection@4>
  401da4:	83 ec 04             	sub    $0x4,%esp
  401da7:	e9 6d ff ff ff       	jmp    401d19 <___mingw_TLScallback+0x29>
  401dac:	90                   	nop
  401dad:	90                   	nop
  401dae:	90                   	nop
  401daf:	90                   	nop

00401db0 <.text>:
  401db0:	56                   	push   %esi
  401db1:	53                   	push   %ebx
  401db2:	83 ec 14             	sub    $0x14,%esp
  401db5:	a1 b8 91 40 00       	mov    0x4091b8,%eax
  401dba:	c7 44 24 08 17 00 00 	movl   $0x17,0x8(%esp)
  401dc1:	00 
  401dc2:	8d 74 24 24          	lea    0x24(%esp),%esi
  401dc6:	8d 58 40             	lea    0x40(%eax),%ebx
  401dc9:	c7 44 24 04 01 00 00 	movl   $0x1,0x4(%esp)
  401dd0:	00 
  401dd1:	89 5c 24 0c          	mov    %ebx,0xc(%esp)
  401dd5:	c7 04 24 18 62 40 00 	movl   $0x406218,(%esp)
  401ddc:	e8 03 21 00 00       	call   403ee4 <_fwrite>
  401de1:	8b 44 24 20          	mov    0x20(%esp),%eax
  401de5:	89 74 24 08          	mov    %esi,0x8(%esp)
  401de9:	89 1c 24             	mov    %ebx,(%esp)
  401dec:	89 44 24 04          	mov    %eax,0x4(%esp)
  401df0:	e8 7f 20 00 00       	call   403e74 <_vfprintf>
  401df5:	e8 fa 20 00 00       	call   403ef4 <_abort>
  401dfa:	8d b6 00 00 00 00    	lea    0x0(%esi),%esi
  401e00:	55                   	push   %ebp
  401e01:	57                   	push   %edi
  401e02:	89 d7                	mov    %edx,%edi
  401e04:	56                   	push   %esi
  401e05:	89 ce                	mov    %ecx,%esi
  401e07:	53                   	push   %ebx
  401e08:	89 c3                	mov    %eax,%ebx
  401e0a:	83 ec 3c             	sub    $0x3c,%esp
  401e0d:	8d 44 24 14          	lea    0x14(%esp),%eax
  401e11:	c7 44 24 08 1c 00 00 	movl   $0x1c,0x8(%esp)
  401e18:	00 
  401e19:	89 44 24 04          	mov    %eax,0x4(%esp)
  401e1d:	89 1c 24             	mov    %ebx,(%esp)
  401e20:	e8 1f 21 00 00       	call   403f44 <_VirtualQuery@12>
  401e25:	83 ec 0c             	sub    $0xc,%esp
  401e28:	85 c0                	test   %eax,%eax
  401e2a:	0f 84 a4 00 00 00    	je     401ed4 <.text+0x124>
  401e30:	8b 44 24 28          	mov    0x28(%esp),%eax
  401e34:	83 f8 40             	cmp    $0x40,%eax
  401e37:	74 05                	je     401e3e <.text+0x8e>
  401e39:	83 f8 04             	cmp    $0x4,%eax
  401e3c:	75 22                	jne    401e60 <.text+0xb0>
  401e3e:	85 f6                	test   %esi,%esi
  401e40:	74 10                	je     401e52 <.text+0xa2>
  401e42:	31 c0                	xor    %eax,%eax
  401e44:	0f b6 0c 07          	movzbl (%edi,%eax,1),%ecx
  401e48:	88 0c 03             	mov    %cl,(%ebx,%eax,1)
  401e4b:	83 c0 01             	add    $0x1,%eax
  401e4e:	39 f0                	cmp    %esi,%eax
  401e50:	72 f2                	jb     401e44 <.text+0x94>
  401e52:	83 c4 3c             	add    $0x3c,%esp
  401e55:	5b                   	pop    %ebx
  401e56:	5e                   	pop    %esi
  401e57:	5f                   	pop    %edi
  401e58:	5d                   	pop    %ebp
  401e59:	c3                   	ret    
  401e5a:	8d b6 00 00 00 00    	lea    0x0(%esi),%esi
  401e60:	8b 44 24 20          	mov    0x20(%esp),%eax
  401e64:	8d 6c 24 10          	lea    0x10(%esp),%ebp
  401e68:	c7 44 24 08 40 00 00 	movl   $0x40,0x8(%esp)
  401e6f:	00 
  401e70:	89 6c 24 0c          	mov    %ebp,0xc(%esp)
  401e74:	89 44 24 04          	mov    %eax,0x4(%esp)
  401e78:	8b 44 24 14          	mov    0x14(%esp),%eax
  401e7c:	89 04 24             	mov    %eax,(%esp)
  401e7f:	e8 c8 20 00 00       	call   403f4c <_VirtualProtect@16>
  401e84:	83 ec 10             	sub    $0x10,%esp
  401e87:	8b 4c 24 28          	mov    0x28(%esp),%ecx
  401e8b:	85 f6                	test   %esi,%esi
  401e8d:	74 10                	je     401e9f <.text+0xef>
  401e8f:	31 d2                	xor    %edx,%edx
  401e91:	0f b6 04 17          	movzbl (%edi,%edx,1),%eax
  401e95:	88 04 13             	mov    %al,(%ebx,%edx,1)
  401e98:	83 c2 01             	add    $0x1,%edx
  401e9b:	39 f2                	cmp    %esi,%edx
  401e9d:	72 f2                	jb     401e91 <.text+0xe1>
  401e9f:	83 f9 40             	cmp    $0x40,%ecx
  401ea2:	74 ae                	je     401e52 <.text+0xa2>
  401ea4:	83 f9 04             	cmp    $0x4,%ecx
  401ea7:	74 a9                	je     401e52 <.text+0xa2>
  401ea9:	8b 44 24 10          	mov    0x10(%esp),%eax
  401ead:	89 6c 24 0c          	mov    %ebp,0xc(%esp)
  401eb1:	89 44 24 08          	mov    %eax,0x8(%esp)
  401eb5:	8b 44 24 20          	mov    0x20(%esp),%eax
  401eb9:	89 44 24 04          	mov    %eax,0x4(%esp)
  401ebd:	8b 44 24 14          	mov    0x14(%esp),%eax
  401ec1:	89 04 24             	mov    %eax,(%esp)
  401ec4:	e8 83 20 00 00       	call   403f4c <_VirtualProtect@16>
  401ec9:	83 ec 10             	sub    $0x10,%esp
  401ecc:	83 c4 3c             	add    $0x3c,%esp
  401ecf:	5b                   	pop    %ebx
  401ed0:	5e                   	pop    %esi
  401ed1:	5f                   	pop    %edi
  401ed2:	5d                   	pop    %ebp
  401ed3:	c3                   	ret    
  401ed4:	89 5c 24 08          	mov    %ebx,0x8(%esp)
  401ed8:	c7 44 24 04 1c 00 00 	movl   $0x1c,0x4(%esp)
  401edf:	00 
  401ee0:	c7 04 24 30 62 40 00 	movl   $0x406230,(%esp)
  401ee7:	e8 c4 fe ff ff       	call   401db0 <.text>
  401eec:	8d 74 26 00          	lea    0x0(%esi,%eiz,1),%esi

00401ef0 <__pei386_runtime_relocator>:
  401ef0:	a1 5c 80 40 00       	mov    0x40805c,%eax
  401ef5:	85 c0                	test   %eax,%eax
  401ef7:	74 07                	je     401f00 <__pei386_runtime_relocator+0x10>
  401ef9:	c3                   	ret    
  401efa:	8d b6 00 00 00 00    	lea    0x0(%esi),%esi
  401f00:	c7 05 5c 80 40 00 01 	movl   $0x1,0x40805c
  401f07:	00 00 00 
  401f0a:	b8 e4 67 40 00       	mov    $0x4067e4,%eax
  401f0f:	2d e4 67 40 00       	sub    $0x4067e4,%eax
  401f14:	83 f8 07             	cmp    $0x7,%eax
  401f17:	7e e0                	jle    401ef9 <__pei386_runtime_relocator+0x9>
  401f19:	57                   	push   %edi
  401f1a:	56                   	push   %esi
  401f1b:	53                   	push   %ebx
  401f1c:	83 ec 20             	sub    $0x20,%esp
  401f1f:	8b 15 e4 67 40 00    	mov    0x4067e4,%edx
  401f25:	83 f8 0b             	cmp    $0xb,%eax
  401f28:	0f 8f 92 00 00 00    	jg     401fc0 <__pei386_runtime_relocator+0xd0>
  401f2e:	bb e4 67 40 00       	mov    $0x4067e4,%ebx
  401f33:	85 d2                	test   %edx,%edx
  401f35:	0f 85 3a 01 00 00    	jne    402075 <__pei386_runtime_relocator+0x185>
  401f3b:	8b 43 04             	mov    0x4(%ebx),%eax
  401f3e:	85 c0                	test   %eax,%eax
  401f40:	0f 85 2f 01 00 00    	jne    402075 <__pei386_runtime_relocator+0x185>
  401f46:	8b 43 08             	mov    0x8(%ebx),%eax
  401f49:	83 f8 01             	cmp    $0x1,%eax
  401f4c:	0f 85 78 01 00 00    	jne    4020ca <__pei386_runtime_relocator+0x1da>
  401f52:	8d b6 00 00 00 00    	lea    0x0(%esi),%esi
  401f58:	83 c3 0c             	add    $0xc,%ebx
  401f5b:	81 fb e4 67 40 00    	cmp    $0x4067e4,%ebx
  401f61:	73 4c                	jae    401faf <__pei386_runtime_relocator+0xbf>
  401f63:	8b 03                	mov    (%ebx),%eax
  401f65:	8b 4b 04             	mov    0x4(%ebx),%ecx
  401f68:	0f b6 53 08          	movzbl 0x8(%ebx),%edx
  401f6c:	8d b8 00 00 40 00    	lea    0x400000(%eax),%edi
  401f72:	8d b1 00 00 40 00    	lea    0x400000(%ecx),%esi
  401f78:	8b 80 00 00 40 00    	mov    0x400000(%eax),%eax
  401f7e:	83 fa 10             	cmp    $0x10,%edx
  401f81:	0f 84 89 00 00 00    	je     402010 <__pei386_runtime_relocator+0x120>
  401f87:	83 fa 20             	cmp    $0x20,%edx
  401f8a:	75 64                	jne    401ff0 <__pei386_runtime_relocator+0x100>
  401f8c:	29 f8                	sub    %edi,%eax
  401f8e:	03 06                	add    (%esi),%eax
  401f90:	b9 04 00 00 00       	mov    $0x4,%ecx
  401f95:	83 c3 0c             	add    $0xc,%ebx
  401f98:	89 44 24 1c          	mov    %eax,0x1c(%esp)
  401f9c:	8d 54 24 1c          	lea    0x1c(%esp),%edx
  401fa0:	89 f0                	mov    %esi,%eax
  401fa2:	e8 59 fe ff ff       	call   401e00 <.text+0x50>
  401fa7:	81 fb e4 67 40 00    	cmp    $0x4067e4,%ebx
  401fad:	72 b4                	jb     401f63 <__pei386_runtime_relocator+0x73>
  401faf:	83 c4 20             	add    $0x20,%esp
  401fb2:	5b                   	pop    %ebx
  401fb3:	5e                   	pop    %esi
  401fb4:	5f                   	pop    %edi
  401fb5:	c3                   	ret    
  401fb6:	8d b4 26 00 00 00 00 	lea    0x0(%esi,%eiz,1),%esi
  401fbd:	8d 76 00             	lea    0x0(%esi),%esi
  401fc0:	85 d2                	test   %edx,%edx
  401fc2:	0f 85 a8 00 00 00    	jne    402070 <__pei386_runtime_relocator+0x180>
  401fc8:	a1 e8 67 40 00       	mov    0x4067e8,%eax
  401fcd:	89 c7                	mov    %eax,%edi
  401fcf:	0b 3d ec 67 40 00    	or     0x4067ec,%edi
  401fd5:	0f 85 e5 00 00 00    	jne    4020c0 <__pei386_runtime_relocator+0x1d0>
  401fdb:	8b 15 f0 67 40 00    	mov    0x4067f0,%edx
  401fe1:	bb f0 67 40 00       	mov    $0x4067f0,%ebx
  401fe6:	e9 48 ff ff ff       	jmp    401f33 <__pei386_runtime_relocator+0x43>
  401feb:	8d 74 26 00          	lea    0x0(%esi,%eiz,1),%esi
  401fef:	90                   	nop
  401ff0:	83 fa 08             	cmp    $0x8,%edx
  401ff3:	74 4b                	je     402040 <__pei386_runtime_relocator+0x150>
  401ff5:	89 54 24 04          	mov    %edx,0x4(%esp)
  401ff9:	c7 04 24 98 62 40 00 	movl   $0x406298,(%esp)
  402000:	c7 44 24 1c 00 00 00 	movl   $0x0,0x1c(%esp)
  402007:	00 
  402008:	e8 a3 fd ff ff       	call   401db0 <.text>
  40200d:	8d 76 00             	lea    0x0(%esi),%esi
  402010:	0f b7 91 00 00 40 00 	movzwl 0x400000(%ecx),%edx
  402017:	66 85 d2             	test   %dx,%dx
  40201a:	79 06                	jns    402022 <__pei386_runtime_relocator+0x132>
  40201c:	81 ca 00 00 ff ff    	or     $0xffff0000,%edx
  402022:	29 fa                	sub    %edi,%edx
  402024:	b9 02 00 00 00       	mov    $0x2,%ecx
  402029:	01 d0                	add    %edx,%eax
  40202b:	8d 54 24 1c          	lea    0x1c(%esp),%edx
  40202f:	89 44 24 1c          	mov    %eax,0x1c(%esp)
  402033:	89 f0                	mov    %esi,%eax
  402035:	e8 c6 fd ff ff       	call   401e00 <.text+0x50>
  40203a:	e9 19 ff ff ff       	jmp    401f58 <__pei386_runtime_relocator+0x68>
  40203f:	90                   	nop
  402040:	0f b6 0e             	movzbl (%esi),%ecx
  402043:	84 c9                	test   %cl,%cl
  402045:	79 06                	jns    40204d <__pei386_runtime_relocator+0x15d>
  402047:	81 c9 00 ff ff ff    	or     $0xffffff00,%ecx
  40204d:	29 f9                	sub    %edi,%ecx
  40204f:	8d 54 24 1c          	lea    0x1c(%esp),%edx
  402053:	01 c8                	add    %ecx,%eax
  402055:	b9 01 00 00 00       	mov    $0x1,%ecx
  40205a:	89 44 24 1c          	mov    %eax,0x1c(%esp)
  40205e:	89 f0                	mov    %esi,%eax
  402060:	e8 9b fd ff ff       	call   401e00 <.text+0x50>
  402065:	e9 ee fe ff ff       	jmp    401f58 <__pei386_runtime_relocator+0x68>
  40206a:	8d b6 00 00 00 00    	lea    0x0(%esi),%esi
  402070:	bb e4 67 40 00       	mov    $0x4067e4,%ebx
  402075:	81 fb e4 67 40 00    	cmp    $0x4067e4,%ebx
  40207b:	0f 83 2e ff ff ff    	jae    401faf <__pei386_runtime_relocator+0xbf>
  402081:	8d b4 26 00 00 00 00 	lea    0x0(%esi,%eiz,1),%esi
  402088:	8b 53 04             	mov    0x4(%ebx),%edx
  40208b:	8b 03                	mov    (%ebx),%eax
  40208d:	b9 04 00 00 00       	mov    $0x4,%ecx
  402092:	83 c3 08             	add    $0x8,%ebx
  402095:	03 82 00 00 40 00    	add    0x400000(%edx),%eax
  40209b:	8d b2 00 00 40 00    	lea    0x400000(%edx),%esi
  4020a1:	8d 54 24 1c          	lea    0x1c(%esp),%edx
  4020a5:	89 44 24 1c          	mov    %eax,0x1c(%esp)
  4020a9:	89 f0                	mov    %esi,%eax
  4020ab:	e8 50 fd ff ff       	call   401e00 <.text+0x50>
  4020b0:	81 fb e4 67 40 00    	cmp    $0x4067e4,%ebx
  4020b6:	72 d0                	jb     402088 <__pei386_runtime_relocator+0x198>
  4020b8:	83 c4 20             	add    $0x20,%esp
  4020bb:	5b                   	pop    %ebx
  4020bc:	5e                   	pop    %esi
  4020bd:	5f                   	pop    %edi
  4020be:	c3                   	ret    
  4020bf:	90                   	nop
  4020c0:	bb e4 67 40 00       	mov    $0x4067e4,%ebx
  4020c5:	e9 74 fe ff ff       	jmp    401f3e <__pei386_runtime_relocator+0x4e>
  4020ca:	89 44 24 04          	mov    %eax,0x4(%esp)
  4020ce:	c7 04 24 64 62 40 00 	movl   $0x406264,(%esp)
  4020d5:	e8 d6 fc ff ff       	call   401db0 <.text>
  4020da:	90                   	nop
  4020db:	90                   	nop
  4020dc:	90                   	nop
  4020dd:	90                   	nop
  4020de:	90                   	nop
  4020df:	90                   	nop

004020e0 <_fesetenv>:
  4020e0:	83 ec 1c             	sub    $0x1c,%esp
  4020e3:	8b 44 24 20          	mov    0x20(%esp),%eax
  4020e7:	c7 44 24 0c 80 1f 00 	movl   $0x1f80,0xc(%esp)
  4020ee:	00 
  4020ef:	83 f8 fd             	cmp    $0xfffffffd,%eax
  4020f2:	74 4c                	je     402140 <_fesetenv+0x60>
  4020f4:	83 f8 fc             	cmp    $0xfffffffc,%eax
  4020f7:	74 2f                	je     402128 <_fesetenv+0x48>
  4020f9:	85 c0                	test   %eax,%eax
  4020fb:	74 53                	je     402150 <_fesetenv+0x70>
  4020fd:	83 f8 ff             	cmp    $0xffffffff,%eax
  402100:	74 48                	je     40214a <_fesetenv+0x6a>
  402102:	83 f8 fe             	cmp    $0xfffffffe,%eax
  402105:	74 2b                	je     402132 <_fesetenv+0x52>
  402107:	d9 20                	fldenv (%eax)
  402109:	0f b7 40 1c          	movzwl 0x1c(%eax),%eax
  40210d:	89 44 24 0c          	mov    %eax,0xc(%esp)
  402111:	f6 05 24 80 40 00 10 	testb  $0x10,0x408024
  402118:	74 05                	je     40211f <_fesetenv+0x3f>
  40211a:	0f ae 54 24 0c       	ldmxcsr 0xc(%esp)
  40211f:	31 c0                	xor    %eax,%eax
  402121:	83 c4 1c             	add    $0x1c,%esp
  402124:	c3                   	ret    
  402125:	8d 76 00             	lea    0x0(%esi),%esi
  402128:	c7 05 14 50 40 00 fe 	movl   $0xfffffffe,0x405014
  40212f:	ff ff ff 
  402132:	ff 15 b0 91 40 00    	call   *0x4091b0
  402138:	eb d7                	jmp    402111 <_fesetenv+0x31>
  40213a:	8d b6 00 00 00 00    	lea    0x0(%esi),%esi
  402140:	c7 05 14 50 40 00 ff 	movl   $0xffffffff,0x405014
  402147:	ff ff ff 
  40214a:	db e3                	fninit 
  40214c:	eb c3                	jmp    402111 <_fesetenv+0x31>
  40214e:	66 90                	xchg   %ax,%ax
  402150:	a1 14 50 40 00       	mov    0x405014,%eax
  402155:	eb a6                	jmp    4020fd <_fesetenv+0x1d>
  402157:	90                   	nop
  402158:	90                   	nop
  402159:	90                   	nop
  40215a:	90                   	nop
  40215b:	90                   	nop
  40215c:	90                   	nop
  40215d:	90                   	nop
  40215e:	90                   	nop
  40215f:	90                   	nop

00402160 <___mingw_aligned_free>:
  402160:	83 ec 2c             	sub    $0x2c,%esp
  402163:	8d 44 24 10          	lea    0x10(%esp),%eax
  402167:	89 44 24 04          	mov    %eax,0x4(%esp)
  40216b:	8b 44 24 30          	mov    0x30(%esp),%eax
  40216f:	89 04 24             	mov    %eax,(%esp)
  402172:	e8 99 1a 00 00       	call   403c10 <___mingw_memalign_base>
  402177:	89 04 24             	mov    %eax,(%esp)
  40217a:	ff 15 1c 92 40 00    	call   *0x40921c
  402180:	83 c4 2c             	add    $0x2c,%esp
  402183:	c3                   	ret    
  402184:	90                   	nop
  402185:	90                   	nop
  402186:	90                   	nop
  402187:	90                   	nop
  402188:	90                   	nop
  402189:	90                   	nop
  40218a:	90                   	nop
  40218b:	90                   	nop
  40218c:	90                   	nop
  40218d:	90                   	nop
  40218e:	90                   	nop
  40218f:	90                   	nop

00402190 <.text>:
  402190:	55                   	push   %ebp
  402191:	57                   	push   %edi
  402192:	56                   	push   %esi
  402193:	53                   	push   %ebx
  402194:	83 ec 3c             	sub    $0x3c,%esp
  402197:	0f be 28             	movsbl (%eax),%ebp
  40219a:	89 54 24 1c          	mov    %edx,0x1c(%esp)
  40219e:	89 4c 24 28          	mov    %ecx,0x28(%esp)
  4021a2:	89 eb                	mov    %ebp,%ebx
  4021a4:	83 fd 2d             	cmp    $0x2d,%ebp
  4021a7:	0f 84 db 00 00 00    	je     402288 <.text+0xf8>
  4021ad:	89 c2                	mov    %eax,%edx
  4021af:	83 fd 5d             	cmp    $0x5d,%ebp
  4021b2:	0f 84 d0 00 00 00    	je     402288 <.text+0xf8>
  4021b8:	8b 44 24 28          	mov    0x28(%esp),%eax
  4021bc:	25 00 40 00 00       	and    $0x4000,%eax
  4021c1:	89 44 24 20          	mov    %eax,0x20(%esp)
  4021c5:	89 e8                	mov    %ebp,%eax
  4021c7:	89 d5                	mov    %edx,%ebp
  4021c9:	89 da                	mov    %ebx,%edx
  4021cb:	89 c3                	mov    %eax,%ebx
  4021cd:	eb 0b                	jmp    4021da <.text+0x4a>
  4021cf:	90                   	nop
  4021d0:	89 d6                	mov    %edx,%esi
  4021d2:	2b 74 24 1c          	sub    0x1c(%esp),%esi
  4021d6:	85 f6                	test   %esi,%esi
  4021d8:	74 64                	je     40223e <.text+0xae>
  4021da:	8d 7d 01             	lea    0x1(%ebp),%edi
  4021dd:	89 de                	mov    %ebx,%esi
  4021df:	83 fb 5d             	cmp    $0x5d,%ebx
  4021e2:	0f 84 d0 00 00 00    	je     4022b8 <.text+0x128>
  4021e8:	83 fb 2d             	cmp    $0x2d,%ebx
  4021eb:	0f 84 b7 00 00 00    	je     4022a8 <.text+0x118>
  4021f1:	85 db                	test   %ebx,%ebx
  4021f3:	0f 84 bf 00 00 00    	je     4022b8 <.text+0x128>
  4021f9:	83 fe 2f             	cmp    $0x2f,%esi
  4021fc:	0f 84 b6 00 00 00    	je     4022b8 <.text+0x128>
  402202:	83 fe 5c             	cmp    $0x5c,%esi
  402205:	0f 84 ad 00 00 00    	je     4022b8 <.text+0x128>
  40220b:	0f be 1f             	movsbl (%edi),%ebx
  40220e:	89 fd                	mov    %edi,%ebp
  402210:	89 f2                	mov    %esi,%edx
  402212:	8b 44 24 20          	mov    0x20(%esp),%eax
  402216:	85 c0                	test   %eax,%eax
  402218:	75 b6                	jne    4021d0 <.text+0x40>
  40221a:	89 14 24             	mov    %edx,(%esp)
  40221d:	89 54 24 24          	mov    %edx,0x24(%esp)
  402221:	e8 56 1c 00 00       	call   403e7c <_tolower>
  402226:	89 c6                	mov    %eax,%esi
  402228:	8b 44 24 1c          	mov    0x1c(%esp),%eax
  40222c:	89 04 24             	mov    %eax,(%esp)
  40222f:	e8 48 1c 00 00       	call   403e7c <_tolower>
  402234:	8b 54 24 24          	mov    0x24(%esp),%edx
  402238:	29 c6                	sub    %eax,%esi
  40223a:	85 f6                	test   %esi,%esi
  40223c:	75 9c                	jne    4021da <.text+0x4a>
  40223e:	89 d9                	mov    %ebx,%ecx
  402240:	8b 5c 24 28          	mov    0x28(%esp),%ebx
  402244:	89 ea                	mov    %ebp,%edx
  402246:	83 e3 20             	and    $0x20,%ebx
  402249:	8d 42 01             	lea    0x1(%edx),%eax
  40224c:	80 f9 5d             	cmp    $0x5d,%cl
  40224f:	74 69                	je     4022ba <.text+0x12a>
  402251:	80 f9 7f             	cmp    $0x7f,%cl
  402254:	74 17                	je     40226d <.text+0xdd>
  402256:	84 c9                	test   %cl,%cl
  402258:	74 5e                	je     4022b8 <.text+0x128>
  40225a:	0f b6 4a 01          	movzbl 0x1(%edx),%ecx
  40225e:	89 c2                	mov    %eax,%edx
  402260:	8d 42 01             	lea    0x1(%edx),%eax
  402263:	80 f9 5d             	cmp    $0x5d,%cl
  402266:	74 52                	je     4022ba <.text+0x12a>
  402268:	80 f9 7f             	cmp    $0x7f,%cl
  40226b:	75 e9                	jne    402256 <.text+0xc6>
  40226d:	0f b6 4a 01          	movzbl 0x1(%edx),%ecx
  402271:	85 db                	test   %ebx,%ebx
  402273:	0f 85 1f 02 00 00    	jne    402498 <.text+0x308>
  402279:	8d 72 02             	lea    0x2(%edx),%esi
  40227c:	89 c2                	mov    %eax,%edx
  40227e:	89 f0                	mov    %esi,%eax
  402280:	eb d4                	jmp    402256 <.text+0xc6>
  402282:	8d b6 00 00 00 00    	lea    0x0(%esi),%esi
  402288:	0f b6 48 01          	movzbl 0x1(%eax),%ecx
  40228c:	8d 50 01             	lea    0x1(%eax),%edx
  40228f:	3b 6c 24 1c          	cmp    0x1c(%esp),%ebp
  402293:	0f 84 a7 01 00 00    	je     402440 <.text+0x2b0>
  402299:	0f be e9             	movsbl %cl,%ebp
  40229c:	e9 17 ff ff ff       	jmp    4021b8 <.text+0x28>
  4022a1:	8d b4 26 00 00 00 00 	lea    0x0(%esi,%eiz,1),%esi
  4022a8:	0f be 5d 01          	movsbl 0x1(%ebp),%ebx
  4022ac:	80 fb 5d             	cmp    $0x5d,%bl
  4022af:	74 17                	je     4022c8 <.text+0x138>
  4022b1:	0f be f3             	movsbl %bl,%esi
  4022b4:	85 f6                	test   %esi,%esi
  4022b6:	75 20                	jne    4022d8 <.text+0x148>
  4022b8:	31 c0                	xor    %eax,%eax
  4022ba:	83 c4 3c             	add    $0x3c,%esp
  4022bd:	5b                   	pop    %ebx
  4022be:	5e                   	pop    %esi
  4022bf:	5f                   	pop    %edi
  4022c0:	5d                   	pop    %ebp
  4022c1:	c3                   	ret    
  4022c2:	8d b6 00 00 00 00    	lea    0x0(%esi),%esi
  4022c8:	89 fd                	mov    %edi,%ebp
  4022ca:	ba 2d 00 00 00       	mov    $0x2d,%edx
  4022cf:	e9 3e ff ff ff       	jmp    402212 <.text+0x82>
  4022d4:	8d 74 26 00          	lea    0x0(%esi,%eiz,1),%esi
  4022d8:	8d 7d 02             	lea    0x2(%ebp),%edi
  4022db:	89 6c 24 24          	mov    %ebp,0x24(%esp)
  4022df:	89 d5                	mov    %edx,%ebp
  4022e1:	89 7c 24 2c          	mov    %edi,0x2c(%esp)
  4022e5:	89 f7                	mov    %esi,%edi
  4022e7:	8b 74 24 20          	mov    0x20(%esp),%esi
  4022eb:	eb 10                	jmp    4022fd <.text+0x16d>
  4022ed:	8d 76 00             	lea    0x0(%esi),%esi
  4022f0:	89 eb                	mov    %ebp,%ebx
  4022f2:	2b 5c 24 1c          	sub    0x1c(%esp),%ebx
  4022f6:	83 c5 01             	add    $0x1,%ebp
  4022f9:	85 db                	test   %ebx,%ebx
  4022fb:	74 27                	je     402324 <.text+0x194>
  4022fd:	39 fd                	cmp    %edi,%ebp
  4022ff:	7d 7f                	jge    402380 <.text+0x1f0>
  402301:	85 f6                	test   %esi,%esi
  402303:	75 eb                	jne    4022f0 <.text+0x160>
  402305:	89 2c 24             	mov    %ebp,(%esp)
  402308:	83 c5 01             	add    $0x1,%ebp
  40230b:	e8 6c 1b 00 00       	call   403e7c <_tolower>
  402310:	89 c3                	mov    %eax,%ebx
  402312:	8b 44 24 1c          	mov    0x1c(%esp),%eax
  402316:	89 04 24             	mov    %eax,(%esp)
  402319:	e8 5e 1b 00 00       	call   403e7c <_tolower>
  40231e:	29 c3                	sub    %eax,%ebx
  402320:	85 db                	test   %ebx,%ebx
  402322:	75 d9                	jne    4022fd <.text+0x16d>
  402324:	8b 54 24 24          	mov    0x24(%esp),%edx
  402328:	8b 4c 24 28          	mov    0x28(%esp),%ecx
  40232c:	8b 7c 24 2c          	mov    0x2c(%esp),%edi
  402330:	0f b6 52 02          	movzbl 0x2(%edx),%edx
  402334:	83 e1 20             	and    $0x20,%ecx
  402337:	8d 47 01             	lea    0x1(%edi),%eax
  40233a:	80 fa 5d             	cmp    $0x5d,%dl
  40233d:	0f 84 77 ff ff ff    	je     4022ba <.text+0x12a>
  402343:	80 fa 7f             	cmp    $0x7f,%dl
  402346:	74 1f                	je     402367 <.text+0x1d7>
  402348:	84 d2                	test   %dl,%dl
  40234a:	0f 84 68 ff ff ff    	je     4022b8 <.text+0x128>
  402350:	0f b6 57 01          	movzbl 0x1(%edi),%edx
  402354:	89 c7                	mov    %eax,%edi
  402356:	8d 47 01             	lea    0x1(%edi),%eax
  402359:	80 fa 5d             	cmp    $0x5d,%dl
  40235c:	0f 84 58 ff ff ff    	je     4022ba <.text+0x12a>
  402362:	80 fa 7f             	cmp    $0x7f,%dl
  402365:	75 e1                	jne    402348 <.text+0x1b8>
  402367:	0f b6 57 01          	movzbl 0x1(%edi),%edx
  40236b:	85 c9                	test   %ecx,%ecx
  40236d:	0f 85 bd 00 00 00    	jne    402430 <.text+0x2a0>
  402373:	8d 5f 02             	lea    0x2(%edi),%ebx
  402376:	89 c7                	mov    %eax,%edi
  402378:	89 d8                	mov    %ebx,%eax
  40237a:	eb cc                	jmp    402348 <.text+0x1b8>
  40237c:	8d 74 26 00          	lea    0x0(%esi,%eiz,1),%esi
  402380:	89 fe                	mov    %edi,%esi
  402382:	89 ea                	mov    %ebp,%edx
  402384:	8b 7c 24 2c          	mov    0x2c(%esp),%edi
  402388:	8b 6c 24 24          	mov    0x24(%esp),%ebp
  40238c:	89 7c 24 24          	mov    %edi,0x24(%esp)
  402390:	89 f7                	mov    %esi,%edi
  402392:	89 d6                	mov    %edx,%esi
  402394:	89 6c 24 2c          	mov    %ebp,0x2c(%esp)
  402398:	8b 6c 24 20          	mov    0x20(%esp),%ebp
  40239c:	eb 0f                	jmp    4023ad <.text+0x21d>
  40239e:	66 90                	xchg   %ax,%ax
  4023a0:	89 f3                	mov    %esi,%ebx
  4023a2:	2b 5c 24 1c          	sub    0x1c(%esp),%ebx
  4023a6:	83 ee 01             	sub    $0x1,%esi
  4023a9:	85 db                	test   %ebx,%ebx
  4023ab:	74 2b                	je     4023d8 <.text+0x248>
  4023ad:	39 fe                	cmp    %edi,%esi
  4023af:	0f 8e eb 00 00 00    	jle    4024a0 <.text+0x310>
  4023b5:	85 ed                	test   %ebp,%ebp
  4023b7:	75 e7                	jne    4023a0 <.text+0x210>
  4023b9:	89 34 24             	mov    %esi,(%esp)
  4023bc:	83 ee 01             	sub    $0x1,%esi
  4023bf:	e8 b8 1a 00 00       	call   403e7c <_tolower>
  4023c4:	89 c3                	mov    %eax,%ebx
  4023c6:	8b 44 24 1c          	mov    0x1c(%esp),%eax
  4023ca:	89 04 24             	mov    %eax,(%esp)
  4023cd:	e8 aa 1a 00 00       	call   403e7c <_tolower>
  4023d2:	29 c3                	sub    %eax,%ebx
  4023d4:	85 db                	test   %ebx,%ebx
  4023d6:	75 d5                	jne    4023ad <.text+0x21d>
  4023d8:	8b 54 24 2c          	mov    0x2c(%esp),%edx
  4023dc:	8b 4c 24 28          	mov    0x28(%esp),%ecx
  4023e0:	8b 7c 24 24          	mov    0x24(%esp),%edi
  4023e4:	0f b6 52 02          	movzbl 0x2(%edx),%edx
  4023e8:	83 e1 20             	and    $0x20,%ecx
  4023eb:	8d 47 01             	lea    0x1(%edi),%eax
  4023ee:	80 fa 5d             	cmp    $0x5d,%dl
  4023f1:	0f 84 c3 fe ff ff    	je     4022ba <.text+0x12a>
  4023f7:	80 fa 7f             	cmp    $0x7f,%dl
  4023fa:	74 1f                	je     40241b <.text+0x28b>
  4023fc:	84 d2                	test   %dl,%dl
  4023fe:	0f 84 b4 fe ff ff    	je     4022b8 <.text+0x128>
  402404:	0f b6 57 01          	movzbl 0x1(%edi),%edx
  402408:	89 c7                	mov    %eax,%edi
  40240a:	8d 47 01             	lea    0x1(%edi),%eax
  40240d:	80 fa 5d             	cmp    $0x5d,%dl
  402410:	0f 84 a4 fe ff ff    	je     4022ba <.text+0x12a>
  402416:	80 fa 7f             	cmp    $0x7f,%dl
  402419:	75 e1                	jne    4023fc <.text+0x26c>
  40241b:	0f b6 57 01          	movzbl 0x1(%edi),%edx
  40241f:	85 c9                	test   %ecx,%ecx
  402421:	0f 85 89 00 00 00    	jne    4024b0 <.text+0x320>
  402427:	8d 5f 02             	lea    0x2(%edi),%ebx
  40242a:	89 c7                	mov    %eax,%edi
  40242c:	89 d8                	mov    %ebx,%eax
  40242e:	eb cc                	jmp    4023fc <.text+0x26c>
  402430:	89 c7                	mov    %eax,%edi
  402432:	e9 00 ff ff ff       	jmp    402337 <.text+0x1a7>
  402437:	8d b4 26 00 00 00 00 	lea    0x0(%esi,%eiz,1),%esi
  40243e:	66 90                	xchg   %ax,%ax
  402440:	8b 5c 24 28          	mov    0x28(%esp),%ebx
  402444:	83 e3 20             	and    $0x20,%ebx
  402447:	8d 42 01             	lea    0x1(%edx),%eax
  40244a:	80 f9 5d             	cmp    $0x5d,%cl
  40244d:	0f 84 67 fe ff ff    	je     4022ba <.text+0x12a>
  402453:	80 f9 7f             	cmp    $0x7f,%cl
  402456:	74 1f                	je     402477 <.text+0x2e7>
  402458:	84 c9                	test   %cl,%cl
  40245a:	0f 84 58 fe ff ff    	je     4022b8 <.text+0x128>
  402460:	0f b6 4a 01          	movzbl 0x1(%edx),%ecx
  402464:	89 c2                	mov    %eax,%edx
  402466:	8d 42 01             	lea    0x1(%edx),%eax
  402469:	80 f9 5d             	cmp    $0x5d,%cl
  40246c:	0f 84 48 fe ff ff    	je     4022ba <.text+0x12a>
  402472:	80 f9 7f             	cmp    $0x7f,%cl
  402475:	75 e1                	jne    402458 <.text+0x2c8>
  402477:	0f b6 4a 01          	movzbl 0x1(%edx),%ecx
  40247b:	85 db                	test   %ebx,%ebx
  40247d:	75 11                	jne    402490 <.text+0x300>
  40247f:	8d 72 02             	lea    0x2(%edx),%esi
  402482:	89 c2                	mov    %eax,%edx
  402484:	89 f0                	mov    %esi,%eax
  402486:	eb d0                	jmp    402458 <.text+0x2c8>
  402488:	8d b4 26 00 00 00 00 	lea    0x0(%esi,%eiz,1),%esi
  40248f:	90                   	nop
  402490:	89 c2                	mov    %eax,%edx
  402492:	eb b3                	jmp    402447 <.text+0x2b7>
  402494:	8d 74 26 00          	lea    0x0(%esi,%eiz,1),%esi
  402498:	89 c2                	mov    %eax,%edx
  40249a:	e9 aa fd ff ff       	jmp    402249 <.text+0xb9>
  40249f:	90                   	nop
  4024a0:	89 fe                	mov    %edi,%esi
  4024a2:	8b 7c 24 24          	mov    0x24(%esp),%edi
  4024a6:	e9 4e fd ff ff       	jmp    4021f9 <.text+0x69>
  4024ab:	8d 74 26 00          	lea    0x0(%esi,%eiz,1),%esi
  4024af:	90                   	nop
  4024b0:	89 c7                	mov    %eax,%edi
  4024b2:	e9 34 ff ff ff       	jmp    4023eb <.text+0x25b>
  4024b7:	8d b4 26 00 00 00 00 	lea    0x0(%esi,%eiz,1),%esi
  4024be:	66 90                	xchg   %ax,%ax
  4024c0:	55                   	push   %ebp
  4024c1:	89 c5                	mov    %eax,%ebp
  4024c3:	57                   	push   %edi
  4024c4:	56                   	push   %esi
  4024c5:	89 d6                	mov    %edx,%esi
  4024c7:	53                   	push   %ebx
  4024c8:	83 ec 2c             	sub    $0x2c,%esp
  4024cb:	0f b6 3a             	movzbl (%edx),%edi
  4024ce:	0f be 10             	movsbl (%eax),%edx
  4024d1:	89 fb                	mov    %edi,%ebx
  4024d3:	89 d0                	mov    %edx,%eax
  4024d5:	80 fb 2e             	cmp    $0x2e,%bl
  4024d8:	0f 84 32 01 00 00    	je     402610 <.text+0x480>
  4024de:	8d 5d 01             	lea    0x1(%ebp),%ebx
  4024e1:	85 d2                	test   %edx,%edx
  4024e3:	0f 84 f9 00 00 00    	je     4025e2 <.text+0x452>
  4024e9:	89 cf                	mov    %ecx,%edi
  4024eb:	83 e7 20             	and    $0x20,%edi
  4024ee:	89 7c 24 14          	mov    %edi,0x14(%esp)
  4024f2:	89 f7                	mov    %esi,%edi
  4024f4:	3c 3f                	cmp    $0x3f,%al
  4024f6:	0f 84 f4 00 00 00    	je     4025f0 <.text+0x460>
  4024fc:	3c 5b                	cmp    $0x5b,%al
  4024fe:	0f 84 9c 00 00 00    	je     4025a0 <.text+0x410>
  402504:	3c 2a                	cmp    $0x2a,%al
  402506:	74 5b                	je     402563 <.text+0x3d3>
  402508:	f6 c1 20             	test   $0x20,%cl
  40250b:	75 09                	jne    402516 <.text+0x386>
  40250d:	83 fa 7f             	cmp    $0x7f,%edx
  402510:	0f 84 42 01 00 00    	je     402658 <.text+0x4c8>
  402516:	0f be 06             	movsbl (%esi),%eax
  402519:	84 c0                	test   %al,%al
  40251b:	74 75                	je     402592 <.text+0x402>
  40251d:	89 44 24 10          	mov    %eax,0x10(%esp)
  402521:	f6 c5 40             	test   $0x40,%ch
  402524:	0f 85 d6 00 00 00    	jne    402600 <.text+0x470>
  40252a:	89 14 24             	mov    %edx,(%esp)
  40252d:	89 4c 24 1c          	mov    %ecx,0x1c(%esp)
  402531:	89 54 24 18          	mov    %edx,0x18(%esp)
  402535:	e8 42 19 00 00       	call   403e7c <_tolower>
  40253a:	89 c5                	mov    %eax,%ebp
  40253c:	8b 44 24 10          	mov    0x10(%esp),%eax
  402540:	89 04 24             	mov    %eax,(%esp)
  402543:	e8 34 19 00 00       	call   403e7c <_tolower>
  402548:	8b 4c 24 1c          	mov    0x1c(%esp),%ecx
  40254c:	8b 54 24 18          	mov    0x18(%esp),%edx
  402550:	29 c5                	sub    %eax,%ebp
  402552:	85 ed                	test   %ebp,%ebp
  402554:	0f 84 9f 00 00 00    	je     4025f9 <.text+0x469>
  40255a:	2b 54 24 10          	sub    0x10(%esp),%edx
  40255e:	eb 32                	jmp    402592 <.text+0x402>
  402560:	83 c3 01             	add    $0x1,%ebx
  402563:	0f b6 03             	movzbl (%ebx),%eax
  402566:	3c 2a                	cmp    $0x2a,%al
  402568:	74 f6                	je     402560 <.text+0x3d0>
  40256a:	31 d2                	xor    %edx,%edx
  40256c:	84 c0                	test   %al,%al
  40256e:	74 22                	je     402592 <.text+0x402>
  402570:	89 ce                	mov    %ecx,%esi
  402572:	81 ce 00 00 01 00    	or     $0x10000,%esi
  402578:	89 f1                	mov    %esi,%ecx
  40257a:	89 fa                	mov    %edi,%edx
  40257c:	89 d8                	mov    %ebx,%eax
  40257e:	e8 3d ff ff ff       	call   4024c0 <.text+0x330>
  402583:	85 c0                	test   %eax,%eax
  402585:	74 09                	je     402590 <.text+0x400>
  402587:	83 c7 01             	add    $0x1,%edi
  40258a:	80 7f ff 00          	cmpb   $0x0,-0x1(%edi)
  40258e:	75 e8                	jne    402578 <.text+0x3e8>
  402590:	89 c2                	mov    %eax,%edx
  402592:	83 c4 2c             	add    $0x2c,%esp
  402595:	89 d0                	mov    %edx,%eax
  402597:	5b                   	pop    %ebx
  402598:	5e                   	pop    %esi
  402599:	5f                   	pop    %edi
  40259a:	5d                   	pop    %ebp
  40259b:	c3                   	ret    
  40259c:	8d 74 26 00          	lea    0x0(%esi,%eiz,1),%esi
  4025a0:	0f be 16             	movsbl (%esi),%edx
  4025a3:	85 d2                	test   %edx,%edx
  4025a5:	0f 84 32 01 00 00    	je     4026dd <.text+0x54d>
  4025ab:	80 7d 01 21          	cmpb   $0x21,0x1(%ebp)
  4025af:	74 7f                	je     402630 <.text+0x4a0>
  4025b1:	89 d8                	mov    %ebx,%eax
  4025b3:	89 4c 24 10          	mov    %ecx,0x10(%esp)
  4025b7:	e8 d4 fb ff ff       	call   402190 <.text>
  4025bc:	89 c5                	mov    %eax,%ebp
  4025be:	85 c0                	test   %eax,%eax
  4025c0:	0f 84 03 01 00 00    	je     4026c9 <.text+0x539>
  4025c6:	0f b6 00             	movzbl (%eax),%eax
  4025c9:	8b 4c 24 10          	mov    0x10(%esp),%ecx
  4025cd:	0f be d0             	movsbl %al,%edx
  4025d0:	8d 5d 01             	lea    0x1(%ebp),%ebx
  4025d3:	83 c6 01             	add    $0x1,%esi
  4025d6:	85 d2                	test   %edx,%edx
  4025d8:	0f 85 14 ff ff ff    	jne    4024f2 <.text+0x362>
  4025de:	0f b6 7f 01          	movzbl 0x1(%edi),%edi
  4025e2:	89 f8                	mov    %edi,%eax
  4025e4:	0f be d0             	movsbl %al,%edx
  4025e7:	f7 da                	neg    %edx
  4025e9:	eb a7                	jmp    402592 <.text+0x402>
  4025eb:	8d 74 26 00          	lea    0x0(%esi,%eiz,1),%esi
  4025ef:	90                   	nop
  4025f0:	80 3e 00             	cmpb   $0x0,(%esi)
  4025f3:	0f 84 da 00 00 00    	je     4026d3 <.text+0x543>
  4025f9:	0f b6 03             	movzbl (%ebx),%eax
  4025fc:	89 dd                	mov    %ebx,%ebp
  4025fe:	eb cd                	jmp    4025cd <.text+0x43d>
  402600:	89 d5                	mov    %edx,%ebp
  402602:	29 c5                	sub    %eax,%ebp
  402604:	e9 49 ff ff ff       	jmp    402552 <.text+0x3c2>
  402609:	8d b4 26 00 00 00 00 	lea    0x0(%esi,%eiz,1),%esi
  402610:	80 fa 2e             	cmp    $0x2e,%dl
  402613:	74 5b                	je     402670 <.text+0x4e0>
  402615:	f7 c1 00 00 01 00    	test   $0x10000,%ecx
  40261b:	0f 85 bd fe ff ff    	jne    4024de <.text+0x34e>
  402621:	83 ea 2e             	sub    $0x2e,%edx
  402624:	e9 69 ff ff ff       	jmp    402592 <.text+0x402>
  402629:	8d b4 26 00 00 00 00 	lea    0x0(%esi,%eiz,1),%esi
  402630:	8d 5d 02             	lea    0x2(%ebp),%ebx
  402633:	89 4c 24 10          	mov    %ecx,0x10(%esp)
  402637:	89 d8                	mov    %ebx,%eax
  402639:	e8 52 fb ff ff       	call   402190 <.text>
  40263e:	8b 4c 24 10          	mov    0x10(%esp),%ecx
  402642:	89 c2                	mov    %eax,%edx
  402644:	0f b6 45 02          	movzbl 0x2(%ebp),%eax
  402648:	85 d2                	test   %edx,%edx
  40264a:	74 2c                	je     402678 <.text+0x4e8>
  40264c:	89 dd                	mov    %ebx,%ebp
  40264e:	e9 7a ff ff ff       	jmp    4025cd <.text+0x43d>
  402653:	8d 74 26 00          	lea    0x0(%esi,%eiz,1),%esi
  402657:	90                   	nop
  402658:	0f be 55 01          	movsbl 0x1(%ebp),%edx
  40265c:	85 d2                	test   %edx,%edx
  40265e:	0f 84 b2 fe ff ff    	je     402516 <.text+0x386>
  402664:	8d 5d 02             	lea    0x2(%ebp),%ebx
  402667:	e9 aa fe ff ff       	jmp    402516 <.text+0x386>
  40266c:	8d 74 26 00          	lea    0x0(%esi,%eiz,1),%esi
  402670:	8d 5d 01             	lea    0x1(%ebp),%ebx
  402673:	e9 71 fe ff ff       	jmp    4024e9 <.text+0x359>
  402678:	3c 5d                	cmp    $0x5d,%al
  40267a:	75 0c                	jne    402688 <.text+0x4f8>
  40267c:	0f b6 45 03          	movzbl 0x3(%ebp),%eax
  402680:	8d 5d 03             	lea    0x3(%ebp),%ebx
  402683:	8d 74 26 00          	lea    0x0(%esi,%eiz,1),%esi
  402687:	90                   	nop
  402688:	8d 6b 01             	lea    0x1(%ebx),%ebp
  40268b:	3c 5d                	cmp    $0x5d,%al
  40268d:	74 15                	je     4026a4 <.text+0x514>
  40268f:	3c 7f                	cmp    $0x7f,%al
  402691:	74 1d                	je     4026b0 <.text+0x520>
  402693:	84 c0                	test   %al,%al
  402695:	74 32                	je     4026c9 <.text+0x539>
  402697:	0f b6 43 01          	movzbl 0x1(%ebx),%eax
  40269b:	89 eb                	mov    %ebp,%ebx
  40269d:	8d 6b 01             	lea    0x1(%ebx),%ebp
  4026a0:	3c 5d                	cmp    $0x5d,%al
  4026a2:	75 eb                	jne    40268f <.text+0x4ff>
  4026a4:	0f b6 43 01          	movzbl 0x1(%ebx),%eax
  4026a8:	e9 20 ff ff ff       	jmp    4025cd <.text+0x43d>
  4026ad:	8d 76 00             	lea    0x0(%esi),%esi
  4026b0:	8b 54 24 14          	mov    0x14(%esp),%edx
  4026b4:	0f b6 43 01          	movzbl 0x1(%ebx),%eax
  4026b8:	85 d2                	test   %edx,%edx
  4026ba:	75 09                	jne    4026c5 <.text+0x535>
  4026bc:	8d 53 02             	lea    0x2(%ebx),%edx
  4026bf:	89 eb                	mov    %ebp,%ebx
  4026c1:	89 d5                	mov    %edx,%ebp
  4026c3:	eb ce                	jmp    402693 <.text+0x503>
  4026c5:	89 eb                	mov    %ebp,%ebx
  4026c7:	eb bf                	jmp    402688 <.text+0x4f8>
  4026c9:	ba 5d 00 00 00       	mov    $0x5d,%edx
  4026ce:	e9 bf fe ff ff       	jmp    402592 <.text+0x402>
  4026d3:	ba 3f 00 00 00       	mov    $0x3f,%edx
  4026d8:	e9 b5 fe ff ff       	jmp    402592 <.text+0x402>
  4026dd:	ba 5b 00 00 00       	mov    $0x5b,%edx
  4026e2:	e9 ab fe ff ff       	jmp    402592 <.text+0x402>
  4026e7:	8d b4 26 00 00 00 00 	lea    0x0(%esi,%eiz,1),%esi
  4026ee:	66 90                	xchg   %ax,%ax
  4026f0:	57                   	push   %edi
  4026f1:	8d 48 01             	lea    0x1(%eax),%ecx
  4026f4:	56                   	push   %esi
  4026f5:	53                   	push   %ebx
  4026f6:	89 c3                	mov    %eax,%ebx
  4026f8:	0f be 00             	movsbl (%eax),%eax
  4026fb:	85 c0                	test   %eax,%eax
  4026fd:	74 61                	je     402760 <.text+0x5d0>
  4026ff:	c1 ea 05             	shr    $0x5,%edx
  402702:	31 ff                	xor    %edi,%edi
  402704:	89 d6                	mov    %edx,%esi
  402706:	83 f6 01             	xor    $0x1,%esi
  402709:	83 e6 01             	and    $0x1,%esi
  40270c:	eb 23                	jmp    402731 <.text+0x5a1>
  40270e:	66 90                	xchg   %ax,%ax
  402710:	83 f8 2a             	cmp    $0x2a,%eax
  402713:	74 6b                	je     402780 <.text+0x5f0>
  402715:	83 f8 3f             	cmp    $0x3f,%eax
  402718:	74 66                	je     402780 <.text+0x5f0>
  40271a:	83 f8 5b             	cmp    $0x5b,%eax
  40271d:	89 cb                	mov    %ecx,%ebx
  40271f:	0f 94 c0             	sete   %al
  402722:	0f b6 c0             	movzbl %al,%eax
  402725:	89 c7                	mov    %eax,%edi
  402727:	0f be 03             	movsbl (%ebx),%eax
  40272a:	83 c1 01             	add    $0x1,%ecx
  40272d:	85 c0                	test   %eax,%eax
  40272f:	74 2f                	je     402760 <.text+0x5d0>
  402731:	83 f8 7f             	cmp    $0x7f,%eax
  402734:	75 06                	jne    40273c <.text+0x5ac>
  402736:	89 f2                	mov    %esi,%edx
  402738:	84 d2                	test   %dl,%dl
  40273a:	75 2c                	jne    402768 <.text+0x5d8>
  40273c:	85 ff                	test   %edi,%edi
  40273e:	74 d0                	je     402710 <.text+0x580>
  402740:	83 ff 01             	cmp    $0x1,%edi
  402743:	7e 05                	jle    40274a <.text+0x5ba>
  402745:	83 f8 5d             	cmp    $0x5d,%eax
  402748:	74 36                	je     402780 <.text+0x5f0>
  40274a:	89 cb                	mov    %ecx,%ebx
  40274c:	83 f8 21             	cmp    $0x21,%eax
  40274f:	74 d6                	je     402727 <.text+0x597>
  402751:	89 cb                	mov    %ecx,%ebx
  402753:	83 c7 01             	add    $0x1,%edi
  402756:	83 c1 01             	add    $0x1,%ecx
  402759:	0f be 03             	movsbl (%ebx),%eax
  40275c:	85 c0                	test   %eax,%eax
  40275e:	75 d1                	jne    402731 <.text+0x5a1>
  402760:	5b                   	pop    %ebx
  402761:	5e                   	pop    %esi
  402762:	5f                   	pop    %edi
  402763:	c3                   	ret    
  402764:	8d 74 26 00          	lea    0x0(%esi,%eiz,1),%esi
  402768:	80 7b 01 00          	cmpb   $0x0,0x1(%ebx)
  40276c:	8d 4b 02             	lea    0x2(%ebx),%ecx
  40276f:	74 18                	je     402789 <.text+0x5f9>
  402771:	85 ff                	test   %edi,%edi
  402773:	74 a5                	je     40271a <.text+0x58a>
  402775:	eb da                	jmp    402751 <.text+0x5c1>
  402777:	8d b4 26 00 00 00 00 	lea    0x0(%esi,%eiz,1),%esi
  40277e:	66 90                	xchg   %ax,%ax
  402780:	5b                   	pop    %ebx
  402781:	b8 01 00 00 00       	mov    $0x1,%eax
  402786:	5e                   	pop    %esi
  402787:	5f                   	pop    %edi
  402788:	c3                   	ret    
  402789:	31 c0                	xor    %eax,%eax
  40278b:	eb d3                	jmp    402760 <.text+0x5d0>
  40278d:	8d 76 00             	lea    0x0(%esi),%esi
  402790:	57                   	push   %edi
  402791:	56                   	push   %esi
  402792:	89 c6                	mov    %eax,%esi
  402794:	53                   	push   %ebx
  402795:	89 d3                	mov    %edx,%ebx
  402797:	83 ec 10             	sub    $0x10,%esp
  40279a:	8b 42 0c             	mov    0xc(%edx),%eax
  40279d:	03 42 04             	add    0x4(%edx),%eax
  4027a0:	8d 04 85 08 00 00 00 	lea    0x8(,%eax,4),%eax
  4027a7:	89 44 24 04          	mov    %eax,0x4(%esp)
  4027ab:	8b 42 08             	mov    0x8(%edx),%eax
  4027ae:	89 04 24             	mov    %eax,(%esp)
  4027b1:	e8 1a 15 00 00       	call   403cd0 <___mingw_realloc>
  4027b6:	85 c0                	test   %eax,%eax
  4027b8:	74 26                	je     4027e0 <.text+0x650>
  4027ba:	8b 4b 04             	mov    0x4(%ebx),%ecx
  4027bd:	8b 53 0c             	mov    0xc(%ebx),%edx
  4027c0:	89 43 08             	mov    %eax,0x8(%ebx)
  4027c3:	8d 79 01             	lea    0x1(%ecx),%edi
  4027c6:	01 d1                	add    %edx,%ecx
  4027c8:	01 fa                	add    %edi,%edx
  4027ca:	89 7b 04             	mov    %edi,0x4(%ebx)
  4027cd:	89 34 88             	mov    %esi,(%eax,%ecx,4)
  4027d0:	c7 04 90 00 00 00 00 	movl   $0x0,(%eax,%edx,4)
  4027d7:	83 c4 10             	add    $0x10,%esp
  4027da:	31 c0                	xor    %eax,%eax
  4027dc:	5b                   	pop    %ebx
  4027dd:	5e                   	pop    %esi
  4027de:	5f                   	pop    %edi
  4027df:	c3                   	ret    
  4027e0:	83 c4 10             	add    $0x10,%esp
  4027e3:	b8 01 00 00 00       	mov    $0x1,%eax
  4027e8:	5b                   	pop    %ebx
  4027e9:	5e                   	pop    %esi
  4027ea:	5f                   	pop    %edi
  4027eb:	c3                   	ret    
  4027ec:	8d 74 26 00          	lea    0x0(%esi,%eiz,1),%esi
  4027f0:	56                   	push   %esi
  4027f1:	89 d6                	mov    %edx,%esi
  4027f3:	53                   	push   %ebx
  4027f4:	89 c3                	mov    %eax,%ebx
  4027f6:	83 ec 14             	sub    $0x14,%esp
  4027f9:	8b 00                	mov    (%eax),%eax
  4027fb:	85 c0                	test   %eax,%eax
  4027fd:	74 05                	je     402804 <.text+0x674>
  4027ff:	e8 ec ff ff ff       	call   4027f0 <.text+0x660>
  402804:	8b 43 08             	mov    0x8(%ebx),%eax
  402807:	85 c0                	test   %eax,%eax
  402809:	74 04                	je     40280f <.text+0x67f>
  40280b:	85 f6                	test   %esi,%esi
  40280d:	75 21                	jne    402830 <.text+0x6a0>
  40280f:	8b 43 04             	mov    0x4(%ebx),%eax
  402812:	85 c0                	test   %eax,%eax
  402814:	74 07                	je     40281d <.text+0x68d>
  402816:	89 f2                	mov    %esi,%edx
  402818:	e8 d3 ff ff ff       	call   4027f0 <.text+0x660>
  40281d:	89 1c 24             	mov    %ebx,(%esp)
  402820:	e8 3b f9 ff ff       	call   402160 <___mingw_aligned_free>
  402825:	83 c4 14             	add    $0x14,%esp
  402828:	5b                   	pop    %ebx
  402829:	5e                   	pop    %esi
  40282a:	c3                   	ret    
  40282b:	8d 74 26 00          	lea    0x0(%esi,%eiz,1),%esi
  40282f:	90                   	nop
  402830:	89 f2                	mov    %esi,%edx
  402832:	e8 59 ff ff ff       	call   402790 <.text+0x600>
  402837:	eb d6                	jmp    40280f <.text+0x67f>
  402839:	8d b4 26 00 00 00 00 	lea    0x0(%esi,%eiz,1),%esi
  402840:	56                   	push   %esi
  402841:	89 c6                	mov    %eax,%esi
  402843:	53                   	push   %ebx
  402844:	83 ec 14             	sub    $0x14,%esp
  402847:	8b 40 0c             	mov    0xc(%eax),%eax
  40284a:	8d 58 01             	lea    0x1(%eax),%ebx
  40284d:	8d 04 9d 00 00 00 00 	lea    0x0(,%ebx,4),%eax
  402854:	89 04 24             	mov    %eax,(%esp)
  402857:	e8 80 16 00 00       	call   403edc <_malloc>
  40285c:	89 46 08             	mov    %eax,0x8(%esi)
  40285f:	85 c0                	test   %eax,%eax
  402861:	74 21                	je     402884 <.text+0x6f4>
  402863:	c7 46 04 00 00 00 00 	movl   $0x0,0x4(%esi)
  40286a:	85 db                	test   %ebx,%ebx
  40286c:	7e 0e                	jle    40287c <.text+0x6ec>
  40286e:	66 90                	xchg   %ax,%ax
  402870:	83 eb 01             	sub    $0x1,%ebx
  402873:	c7 04 98 00 00 00 00 	movl   $0x0,(%eax,%ebx,4)
  40287a:	75 f4                	jne    402870 <.text+0x6e0>
  40287c:	31 c0                	xor    %eax,%eax
  40287e:	83 c4 14             	add    $0x14,%esp
  402881:	5b                   	pop    %ebx
  402882:	5e                   	pop    %esi
  402883:	c3                   	ret    
  402884:	b8 03 00 00 00       	mov    $0x3,%eax
  402889:	eb f3                	jmp    40287e <.text+0x6ee>
  40288b:	8d 74 26 00          	lea    0x0(%esi,%eiz,1),%esi
  40288f:	90                   	nop
  402890:	55                   	push   %ebp
  402891:	89 e5                	mov    %esp,%ebp
  402893:	57                   	push   %edi
  402894:	56                   	push   %esi
  402895:	53                   	push   %ebx
  402896:	83 ec 6c             	sub    $0x6c,%esp
  402899:	89 45 c4             	mov    %eax,-0x3c(%ebp)
  40289c:	89 55 d0             	mov    %edx,-0x30(%ebp)
  40289f:	89 4d c8             	mov    %ecx,-0x38(%ebp)
  4028a2:	80 e6 04             	and    $0x4,%dh
  4028a5:	0f 85 3d 01 00 00    	jne    4029e8 <.text+0x858>
  4028ab:	8b 7d c4             	mov    -0x3c(%ebp),%edi
  4028ae:	89 65 bc             	mov    %esp,-0x44(%ebp)
  4028b1:	89 3c 24             	mov    %edi,(%esp)
  4028b4:	e8 cb 15 00 00       	call   403e84 <_strlen>
  4028b9:	8d 50 01             	lea    0x1(%eax),%edx
  4028bc:	83 c0 10             	add    $0x10,%eax
  4028bf:	c1 e8 04             	shr    $0x4,%eax
  4028c2:	c1 e0 04             	shl    $0x4,%eax
  4028c5:	e8 66 15 00 00       	call   403e30 <___chkstk_ms>
  4028ca:	29 c4                	sub    %eax,%esp
  4028cc:	8d 44 24 0c          	lea    0xc(%esp),%eax
  4028d0:	89 54 24 08          	mov    %edx,0x8(%esp)
  4028d4:	89 7c 24 04          	mov    %edi,0x4(%esp)
  4028d8:	89 04 24             	mov    %eax,(%esp)
  4028db:	e8 ec 15 00 00       	call   403ecc <_memcpy>
  4028e0:	89 04 24             	mov    %eax,(%esp)
  4028e3:	e8 a8 09 00 00       	call   403290 <___mingw_dirname>
  4028e8:	c7 45 e4 00 00 00 00 	movl   $0x0,-0x1c(%ebp)
  4028ef:	89 45 c0             	mov    %eax,-0x40(%ebp)
  4028f2:	89 c7                	mov    %eax,%edi
  4028f4:	8d 45 d8             	lea    -0x28(%ebp),%eax
  4028f7:	e8 44 ff ff ff       	call   402840 <.text+0x6b0>
  4028fc:	89 45 d4             	mov    %eax,-0x2c(%ebp)
  4028ff:	85 c0                	test   %eax,%eax
  402901:	0f 85 81 03 00 00    	jne    402c88 <.text+0xaf8>
  402907:	85 ff                	test   %edi,%edi
  402909:	74 12                	je     40291d <.text+0x78d>
  40290b:	8b 55 d0             	mov    -0x30(%ebp),%edx
  40290e:	89 f8                	mov    %edi,%eax
  402910:	e8 db fd ff ff       	call   4026f0 <.text+0x560>
  402915:	85 c0                	test   %eax,%eax
  402917:	0f 85 f9 05 00 00    	jne    402f16 <.text+0xd86>
  40291d:	8b 75 c0             	mov    -0x40(%ebp),%esi
  402920:	89 e3                	mov    %esp,%ebx
  402922:	89 34 24             	mov    %esi,(%esp)
  402925:	e8 5a 15 00 00       	call   403e84 <_strlen>
  40292a:	83 c0 10             	add    $0x10,%eax
  40292d:	c1 e8 04             	shr    $0x4,%eax
  402930:	c1 e0 04             	shl    $0x4,%eax
  402933:	e8 f8 14 00 00       	call   403e30 <___chkstk_ms>
  402938:	29 c4                	sub    %eax,%esp
  40293a:	89 f2                	mov    %esi,%edx
  40293c:	8d 7c 24 0c          	lea    0xc(%esp),%edi
  402940:	89 f9                	mov    %edi,%ecx
  402942:	eb 10                	jmp    402954 <.text+0x7c4>
  402944:	8d 74 26 00          	lea    0x0(%esi,%eiz,1),%esi
  402948:	83 c1 01             	add    $0x1,%ecx
  40294b:	89 f2                	mov    %esi,%edx
  40294d:	88 41 ff             	mov    %al,-0x1(%ecx)
  402950:	84 c0                	test   %al,%al
  402952:	74 1b                	je     40296f <.text+0x7df>
  402954:	0f b6 02             	movzbl (%edx),%eax
  402957:	8d 72 01             	lea    0x1(%edx),%esi
  40295a:	3c 7f                	cmp    $0x7f,%al
  40295c:	75 ea                	jne    402948 <.text+0x7b8>
  40295e:	0f b6 42 01          	movzbl 0x1(%edx),%eax
  402962:	83 c1 01             	add    $0x1,%ecx
  402965:	83 c2 02             	add    $0x2,%edx
  402968:	88 41 ff             	mov    %al,-0x1(%ecx)
  40296b:	84 c0                	test   %al,%al
  40296d:	75 e5                	jne    402954 <.text+0x7c4>
  40296f:	89 3c 24             	mov    %edi,(%esp)
  402972:	e8 ed 14 00 00       	call   403e64 <_strdup>
  402977:	c7 45 d4 01 00 00 00 	movl   $0x1,-0x2c(%ebp)
  40297e:	89 dc                	mov    %ebx,%esp
  402980:	85 c0                	test   %eax,%eax
  402982:	0f 84 00 03 00 00    	je     402c88 <.text+0xaf8>
  402988:	8d 55 d8             	lea    -0x28(%ebp),%edx
  40298b:	e8 00 fe ff ff       	call   402790 <.text+0x600>
  402990:	89 45 d4             	mov    %eax,-0x2c(%ebp)
  402993:	8b 4d d4             	mov    -0x2c(%ebp),%ecx
  402996:	85 c9                	test   %ecx,%ecx
  402998:	0f 85 ea 02 00 00    	jne    402c88 <.text+0xaf8>
  40299e:	8b 5d c4             	mov    -0x3c(%ebp),%ebx
  4029a1:	0f b6 43 01          	movzbl 0x1(%ebx),%eax
  4029a5:	3c 2f                	cmp    $0x2f,%al
  4029a7:	0f 84 33 03 00 00    	je     402ce0 <.text+0xb50>
  4029ad:	3c 5c                	cmp    $0x5c,%al
  4029af:	0f 84 2b 03 00 00    	je     402ce0 <.text+0xb50>
  4029b5:	8b 45 c0             	mov    -0x40(%ebp),%eax
  4029b8:	80 38 2e             	cmpb   $0x2e,(%eax)
  4029bb:	0f 85 1f 03 00 00    	jne    402ce0 <.text+0xb50>
  4029c1:	80 78 01 00          	cmpb   $0x0,0x1(%eax)
  4029c5:	0f 85 15 03 00 00    	jne    402ce0 <.text+0xb50>
  4029cb:	f6 45 d0 10          	testb  $0x10,-0x30(%ebp)
  4029cf:	0f 85 af 06 00 00    	jne    403084 <.text+0xef4>
  4029d5:	c6 45 9f 5c          	movb   $0x5c,-0x61(%ebp)
  4029d9:	c7 45 c0 00 00 00 00 	movl   $0x0,-0x40(%ebp)
  4029e0:	e9 4e 03 00 00       	jmp    402d33 <.text+0xba3>
  4029e5:	8d 76 00             	lea    0x0(%esi),%esi
  4029e8:	89 65 b8             	mov    %esp,-0x48(%ebp)
  4029eb:	89 c6                	mov    %eax,%esi
  4029ed:	89 04 24             	mov    %eax,(%esp)
  4029f0:	e8 8f 14 00 00       	call   403e84 <_strlen>
  4029f5:	83 c0 10             	add    $0x10,%eax
  4029f8:	c1 e8 04             	shr    $0x4,%eax
  4029fb:	c1 e0 04             	shl    $0x4,%eax
  4029fe:	e8 2d 14 00 00       	call   403e30 <___chkstk_ms>
  402a03:	0f b6 1e             	movzbl (%esi),%ebx
  402a06:	29 c4                	sub    %eax,%esp
  402a08:	8d 7c 24 0c          	lea    0xc(%esp),%edi
  402a0c:	89 7d bc             	mov    %edi,-0x44(%ebp)
  402a0f:	8d 4e 01             	lea    0x1(%esi),%ecx
  402a12:	80 fb 7f             	cmp    $0x7f,%bl
  402a15:	74 22                	je     402a39 <.text+0x8a9>
  402a17:	80 fb 7b             	cmp    $0x7b,%bl
  402a1a:	74 44                	je     402a60 <.text+0x8d0>
  402a1c:	88 1f                	mov    %bl,(%edi)
  402a1e:	8d 47 01             	lea    0x1(%edi),%eax
  402a21:	84 db                	test   %bl,%bl
  402a23:	0f 84 99 02 00 00    	je     402cc2 <.text+0xb32>
  402a29:	0f b6 5e 01          	movzbl 0x1(%esi),%ebx
  402a2d:	89 ce                	mov    %ecx,%esi
  402a2f:	89 c7                	mov    %eax,%edi
  402a31:	8d 4e 01             	lea    0x1(%esi),%ecx
  402a34:	80 fb 7f             	cmp    $0x7f,%bl
  402a37:	75 de                	jne    402a17 <.text+0x887>
  402a39:	0f b6 5e 01          	movzbl 0x1(%esi),%ebx
  402a3d:	c6 07 7f             	movb   $0x7f,(%edi)
  402a40:	84 db                	test   %bl,%bl
  402a42:	75 0c                	jne    402a50 <.text+0x8c0>
  402a44:	8d 46 02             	lea    0x2(%esi),%eax
  402a47:	83 c7 01             	add    $0x1,%edi
  402a4a:	89 ce                	mov    %ecx,%esi
  402a4c:	89 c1                	mov    %eax,%ecx
  402a4e:	eb cc                	jmp    402a1c <.text+0x88c>
  402a50:	88 5f 01             	mov    %bl,0x1(%edi)
  402a53:	83 c6 02             	add    $0x2,%esi
  402a56:	0f b6 1e             	movzbl (%esi),%ebx
  402a59:	83 c7 02             	add    $0x2,%edi
  402a5c:	eb b1                	jmp    402a0f <.text+0x87f>
  402a5e:	66 90                	xchg   %ax,%ax
  402a60:	0f b6 5e 01          	movzbl 0x1(%esi),%ebx
  402a64:	89 f2                	mov    %esi,%edx
  402a66:	89 75 c0             	mov    %esi,-0x40(%ebp)
  402a69:	89 4d d4             	mov    %ecx,-0x2c(%ebp)
  402a6c:	8d 72 01             	lea    0x1(%edx),%esi
  402a6f:	b9 01 00 00 00       	mov    $0x1,%ecx
  402a74:	89 d8                	mov    %ebx,%eax
  402a76:	c7 45 cc 2c 00 00 00 	movl   $0x2c,-0x34(%ebp)
  402a7d:	3c 7b                	cmp    $0x7b,%al
  402a7f:	74 2b                	je     402aac <.text+0x91c>
  402a81:	8d b4 26 00 00 00 00 	lea    0x0(%esi,%eiz,1),%esi
  402a88:	7f 36                	jg     402ac0 <.text+0x930>
  402a8a:	84 c0                	test   %al,%al
  402a8c:	0f 84 1e 01 00 00    	je     402bb0 <.text+0xa20>
  402a92:	3c 2c                	cmp    $0x2c,%al
  402a94:	75 09                	jne    402a9f <.text+0x90f>
  402a96:	83 f9 01             	cmp    $0x1,%ecx
  402a99:	0f 84 11 02 00 00    	je     402cb0 <.text+0xb20>
  402a9f:	0f b6 42 02          	movzbl 0x2(%edx),%eax
  402aa3:	89 f2                	mov    %esi,%edx
  402aa5:	8d 72 01             	lea    0x1(%edx),%esi
  402aa8:	3c 7b                	cmp    $0x7b,%al
  402aaa:	75 dc                	jne    402a88 <.text+0x8f8>
  402aac:	0f b6 42 02          	movzbl 0x2(%edx),%eax
  402ab0:	83 c1 01             	add    $0x1,%ecx
  402ab3:	89 f2                	mov    %esi,%edx
  402ab5:	eb ee                	jmp    402aa5 <.text+0x915>
  402ab7:	8d b4 26 00 00 00 00 	lea    0x0(%esi,%eiz,1),%esi
  402abe:	66 90                	xchg   %ax,%ax
  402ac0:	3c 7d                	cmp    $0x7d,%al
  402ac2:	0f 85 18 01 00 00    	jne    402be0 <.text+0xa50>
  402ac8:	83 e9 01             	sub    $0x1,%ecx
  402acb:	75 d2                	jne    402a9f <.text+0x90f>
  402acd:	83 7d cc 7b          	cmpl   $0x7b,-0x34(%ebp)
  402ad1:	8b 75 c0             	mov    -0x40(%ebp),%esi
  402ad4:	8b 4d d4             	mov    -0x2c(%ebp),%ecx
  402ad7:	0f 85 d6 00 00 00    	jne    402bb3 <.text+0xa23>
  402add:	89 7d d4             	mov    %edi,-0x2c(%ebp)
  402ae0:	8b 7d d0             	mov    -0x30(%ebp),%edi
  402ae3:	8b 45 d4             	mov    -0x2c(%ebp),%eax
  402ae6:	ba 01 00 00 00       	mov    $0x1,%edx
  402aeb:	80 fb 7f             	cmp    $0x7f,%bl
  402aee:	0f 84 98 00 00 00    	je     402b8c <.text+0x9fc>
  402af4:	8d 74 26 00          	lea    0x0(%esi,%eiz,1),%esi
  402af8:	83 c6 01             	add    $0x1,%esi
  402afb:	89 c1                	mov    %eax,%ecx
  402afd:	80 fb 7d             	cmp    $0x7d,%bl
  402b00:	74 6e                	je     402b70 <.text+0x9e0>
  402b02:	80 fb 2c             	cmp    $0x2c,%bl
  402b05:	0f 85 b5 00 00 00    	jne    402bc0 <.text+0xa30>
  402b0b:	83 fa 01             	cmp    $0x1,%edx
  402b0e:	0f 85 ac 00 00 00    	jne    402bc0 <.text+0xa30>
  402b14:	89 f2                	mov    %esi,%edx
  402b16:	bb 01 00 00 00       	mov    $0x1,%ebx
  402b1b:	8d 74 26 00          	lea    0x0(%esi,%eiz,1),%esi
  402b1f:	90                   	nop
  402b20:	8d 42 01             	lea    0x1(%edx),%eax
  402b23:	0f b6 52 01          	movzbl 0x1(%edx),%edx
  402b27:	80 fa 7f             	cmp    $0x7f,%dl
  402b2a:	74 1c                	je     402b48 <.text+0x9b8>
  402b2c:	e9 ef 00 00 00       	jmp    402c20 <.text+0xa90>
  402b31:	8d b4 26 00 00 00 00 	lea    0x0(%esi,%eiz,1),%esi
  402b38:	0f b6 50 02          	movzbl 0x2(%eax),%edx
  402b3c:	83 c0 02             	add    $0x2,%eax
  402b3f:	80 fa 7f             	cmp    $0x7f,%dl
  402b42:	0f 85 d8 00 00 00    	jne    402c20 <.text+0xa90>
  402b48:	80 78 01 00          	cmpb   $0x0,0x1(%eax)
  402b4c:	75 ea                	jne    402b38 <.text+0x9a8>
  402b4e:	c6 01 00             	movb   $0x0,(%ecx)
  402b51:	c7 45 d4 01 00 00 00 	movl   $0x1,-0x2c(%ebp)
  402b58:	8b 65 b8             	mov    -0x48(%ebp),%esp
  402b5b:	8b 45 d4             	mov    -0x2c(%ebp),%eax
  402b5e:	8d 65 f4             	lea    -0xc(%ebp),%esp
  402b61:	5b                   	pop    %ebx
  402b62:	5e                   	pop    %esi
  402b63:	5f                   	pop    %edi
  402b64:	5d                   	pop    %ebp
  402b65:	c3                   	ret    
  402b66:	8d b4 26 00 00 00 00 	lea    0x0(%esi,%eiz,1),%esi
  402b6d:	8d 76 00             	lea    0x0(%esi),%esi
  402b70:	83 ea 01             	sub    $0x1,%edx
  402b73:	0f 84 c7 00 00 00    	je     402c40 <.text+0xab0>
  402b79:	c6 01 7d             	movb   $0x7d,(%ecx)
  402b7c:	8d 41 01             	lea    0x1(%ecx),%eax
  402b7f:	0f b6 5e 01          	movzbl 0x1(%esi),%ebx
  402b83:	80 fb 7f             	cmp    $0x7f,%bl
  402b86:	0f 85 6c ff ff ff    	jne    402af8 <.text+0x968>
  402b8c:	0f b6 5e 02          	movzbl 0x2(%esi),%ebx
  402b90:	c6 00 7f             	movb   $0x7f,(%eax)
  402b93:	8d 48 02             	lea    0x2(%eax),%ecx
  402b96:	88 58 01             	mov    %bl,0x1(%eax)
  402b99:	84 db                	test   %bl,%bl
  402b9b:	74 6b                	je     402c08 <.text+0xa78>
  402b9d:	0f b6 5e 03          	movzbl 0x3(%esi),%ebx
  402ba1:	83 c6 03             	add    $0x3,%esi
  402ba4:	e9 54 ff ff ff       	jmp    402afd <.text+0x96d>
  402ba9:	8d b4 26 00 00 00 00 	lea    0x0(%esi,%eiz,1),%esi
  402bb0:	8b 4d d4             	mov    -0x2c(%ebp),%ecx
  402bb3:	c6 07 7b             	movb   $0x7b,(%edi)
  402bb6:	89 ce                	mov    %ecx,%esi
  402bb8:	83 c7 01             	add    $0x1,%edi
  402bbb:	e9 4f fe ff ff       	jmp    402a0f <.text+0x87f>
  402bc0:	8d 41 01             	lea    0x1(%ecx),%eax
  402bc3:	80 fb 7b             	cmp    $0x7b,%bl
  402bc6:	75 08                	jne    402bd0 <.text+0xa40>
  402bc8:	c6 01 7b             	movb   $0x7b,(%ecx)
  402bcb:	83 c2 01             	add    $0x1,%edx
  402bce:	eb af                	jmp    402b7f <.text+0x9ef>
  402bd0:	88 19                	mov    %bl,(%ecx)
  402bd2:	84 db                	test   %bl,%bl
  402bd4:	75 a9                	jne    402b7f <.text+0x9ef>
  402bd6:	eb 34                	jmp    402c0c <.text+0xa7c>
  402bd8:	8d b4 26 00 00 00 00 	lea    0x0(%esi,%eiz,1),%esi
  402bdf:	90                   	nop
  402be0:	3c 7f                	cmp    $0x7f,%al
  402be2:	0f 85 b7 fe ff ff    	jne    402a9f <.text+0x90f>
  402be8:	0f b6 42 02          	movzbl 0x2(%edx),%eax
  402bec:	84 c0                	test   %al,%al
  402bee:	0f 84 af fe ff ff    	je     402aa3 <.text+0x913>
  402bf4:	8d 72 02             	lea    0x2(%edx),%esi
  402bf7:	0f b6 42 03          	movzbl 0x3(%edx),%eax
  402bfb:	89 f2                	mov    %esi,%edx
  402bfd:	e9 a3 fe ff ff       	jmp    402aa5 <.text+0x915>
  402c02:	8d b6 00 00 00 00    	lea    0x0(%esi),%esi
  402c08:	c6 40 02 00          	movb   $0x0,0x2(%eax)
  402c0c:	c7 45 d4 01 00 00 00 	movl   $0x1,-0x2c(%ebp)
  402c13:	e9 40 ff ff ff       	jmp    402b58 <.text+0x9c8>
  402c18:	8d b4 26 00 00 00 00 	lea    0x0(%esi,%eiz,1),%esi
  402c1f:	90                   	nop
  402c20:	80 fa 7b             	cmp    $0x7b,%dl
  402c23:	74 7b                	je     402ca0 <.text+0xb10>
  402c25:	80 fa 7d             	cmp    $0x7d,%dl
  402c28:	0f 84 a2 00 00 00    	je     402cd0 <.text+0xb40>
  402c2e:	84 d2                	test   %dl,%dl
  402c30:	0f 84 18 ff ff ff    	je     402b4e <.text+0x9be>
  402c36:	89 c2                	mov    %eax,%edx
  402c38:	e9 e3 fe ff ff       	jmp    402b20 <.text+0x990>
  402c3d:	8d 76 00             	lea    0x0(%esi),%esi
  402c40:	89 f0                	mov    %esi,%eax
  402c42:	83 c0 01             	add    $0x1,%eax
  402c45:	8d 76 00             	lea    0x0(%esi),%esi
  402c48:	0f b6 10             	movzbl (%eax),%edx
  402c4b:	83 c1 01             	add    $0x1,%ecx
  402c4e:	83 c0 01             	add    $0x1,%eax
  402c51:	88 51 ff             	mov    %dl,-0x1(%ecx)
  402c54:	84 d2                	test   %dl,%dl
  402c56:	75 f0                	jne    402c48 <.text+0xab8>
  402c58:	8b 45 08             	mov    0x8(%ebp),%eax
  402c5b:	89 fa                	mov    %edi,%edx
  402c5d:	83 cf 01             	or     $0x1,%edi
  402c60:	89 04 24             	mov    %eax,(%esp)
  402c63:	8b 4d c8             	mov    -0x38(%ebp),%ecx
  402c66:	8b 45 bc             	mov    -0x44(%ebp),%eax
  402c69:	e8 22 fc ff ff       	call   402890 <.text+0x700>
  402c6e:	83 f8 01             	cmp    $0x1,%eax
  402c71:	74 99                	je     402c0c <.text+0xa7c>
  402c73:	80 3e 2c             	cmpb   $0x2c,(%esi)
  402c76:	0f 85 92 02 00 00    	jne    402f0e <.text+0xd7e>
  402c7c:	0f b6 5e 01          	movzbl 0x1(%esi),%ebx
  402c80:	e9 5e fe ff ff       	jmp    402ae3 <.text+0x953>
  402c85:	8d 76 00             	lea    0x0(%esi),%esi
  402c88:	8b 45 d4             	mov    -0x2c(%ebp),%eax
  402c8b:	8b 65 bc             	mov    -0x44(%ebp),%esp
  402c8e:	8d 65 f4             	lea    -0xc(%ebp),%esp
  402c91:	5b                   	pop    %ebx
  402c92:	5e                   	pop    %esi
  402c93:	5f                   	pop    %edi
  402c94:	5d                   	pop    %ebp
  402c95:	c3                   	ret    
  402c96:	8d b4 26 00 00 00 00 	lea    0x0(%esi,%eiz,1),%esi
  402c9d:	8d 76 00             	lea    0x0(%esi),%esi
  402ca0:	83 c3 01             	add    $0x1,%ebx
  402ca3:	89 c2                	mov    %eax,%edx
  402ca5:	e9 76 fe ff ff       	jmp    402b20 <.text+0x990>
  402caa:	8d b6 00 00 00 00    	lea    0x0(%esi),%esi
  402cb0:	0f b6 42 02          	movzbl 0x2(%edx),%eax
  402cb4:	c7 45 cc 7b 00 00 00 	movl   $0x7b,-0x34(%ebp)
  402cbb:	89 f2                	mov    %esi,%edx
  402cbd:	e9 e3 fd ff ff       	jmp    402aa5 <.text+0x915>
  402cc2:	8b 65 b8             	mov    -0x48(%ebp),%esp
  402cc5:	e9 e1 fb ff ff       	jmp    4028ab <.text+0x71b>
  402cca:	8d b6 00 00 00 00    	lea    0x0(%esi),%esi
  402cd0:	83 eb 01             	sub    $0x1,%ebx
  402cd3:	0f 84 69 ff ff ff    	je     402c42 <.text+0xab2>
  402cd9:	89 c2                	mov    %eax,%edx
  402cdb:	e9 40 fe ff ff       	jmp    402b20 <.text+0x990>
  402ce0:	8b 45 c0             	mov    -0x40(%ebp),%eax
  402ce3:	89 04 24             	mov    %eax,(%esp)
  402ce6:	e8 99 11 00 00       	call   403e84 <_strlen>
  402ceb:	8b 7d c4             	mov    -0x3c(%ebp),%edi
  402cee:	8b 55 c4             	mov    -0x3c(%ebp),%edx
  402cf1:	8d 1c 07             	lea    (%edi,%eax,1),%ebx
  402cf4:	0f b6 03             	movzbl (%ebx),%eax
  402cf7:	39 df                	cmp    %ebx,%edi
  402cf9:	73 17                	jae    402d12 <.text+0xb82>
  402cfb:	8d 74 26 00          	lea    0x0(%esi,%eiz,1),%esi
  402cff:	90                   	nop
  402d00:	3c 2f                	cmp    $0x2f,%al
  402d02:	74 1c                	je     402d20 <.text+0xb90>
  402d04:	3c 5c                	cmp    $0x5c,%al
  402d06:	74 0a                	je     402d12 <.text+0xb82>
  402d08:	83 eb 01             	sub    $0x1,%ebx
  402d0b:	0f b6 03             	movzbl (%ebx),%eax
  402d0e:	39 da                	cmp    %ebx,%edx
  402d10:	75 ee                	jne    402d00 <.text+0xb70>
  402d12:	3c 2f                	cmp    $0x2f,%al
  402d14:	74 0a                	je     402d20 <.text+0xb90>
  402d16:	3c 5c                	cmp    $0x5c,%al
  402d18:	74 06                	je     402d20 <.text+0xb90>
  402d1a:	c6 45 9f 5c          	movb   $0x5c,-0x61(%ebp)
  402d1e:	eb 13                	jmp    402d33 <.text+0xba3>
  402d20:	83 c3 01             	add    $0x1,%ebx
  402d23:	89 c2                	mov    %eax,%edx
  402d25:	0f b6 03             	movzbl (%ebx),%eax
  402d28:	3c 2f                	cmp    $0x2f,%al
  402d2a:	74 f4                	je     402d20 <.text+0xb90>
  402d2c:	3c 5c                	cmp    $0x5c,%al
  402d2e:	74 f0                	je     402d20 <.text+0xb90>
  402d30:	88 55 9f             	mov    %dl,-0x61(%ebp)
  402d33:	8b 7d e0             	mov    -0x20(%ebp),%edi
  402d36:	c7 45 d4 02 00 00 00 	movl   $0x2,-0x2c(%ebp)
  402d3d:	8b 07                	mov    (%edi),%eax
  402d3f:	85 c0                	test   %eax,%eax
  402d41:	0f 84 36 02 00 00    	je     402f7d <.text+0xded>
  402d47:	8b 4d d0             	mov    -0x30(%ebp),%ecx
  402d4a:	89 5d b8             	mov    %ebx,-0x48(%ebp)
  402d4d:	89 fb                	mov    %edi,%ebx
  402d4f:	81 e1 00 80 00 00    	and    $0x8000,%ecx
  402d55:	89 4d c4             	mov    %ecx,-0x3c(%ebp)
  402d58:	eb 4c                	jmp    402da6 <.text+0xc16>
  402d5a:	8d b6 00 00 00 00    	lea    0x0(%esi),%esi
  402d60:	f6 45 d0 04          	testb  $0x4,-0x30(%ebp)
  402d64:	75 22                	jne    402d88 <.text+0xbf8>
  402d66:	8b 7d c8             	mov    -0x38(%ebp),%edi
  402d69:	85 ff                	test   %edi,%edi
  402d6b:	74 22                	je     402d8f <.text+0xbff>
  402d6d:	e8 aa 11 00 00       	call   403f1c <__errno>
  402d72:	8b 00                	mov    (%eax),%eax
  402d74:	89 44 24 04          	mov    %eax,0x4(%esp)
  402d78:	8b 03                	mov    (%ebx),%eax
  402d7a:	89 04 24             	mov    %eax,(%esp)
  402d7d:	ff d7                	call   *%edi
  402d7f:	85 c0                	test   %eax,%eax
  402d81:	74 0c                	je     402d8f <.text+0xbff>
  402d83:	8d 74 26 00          	lea    0x0(%esi,%eiz,1),%esi
  402d87:	90                   	nop
  402d88:	c7 45 d4 01 00 00 00 	movl   $0x1,-0x2c(%ebp)
  402d8f:	8b 03                	mov    (%ebx),%eax
  402d91:	83 c3 04             	add    $0x4,%ebx
  402d94:	89 04 24             	mov    %eax,(%esp)
  402d97:	e8 c4 f3 ff ff       	call   402160 <___mingw_aligned_free>
  402d9c:	8b 03                	mov    (%ebx),%eax
  402d9e:	85 c0                	test   %eax,%eax
  402da0:	0f 84 e7 01 00 00    	je     402f8d <.text+0xdfd>
  402da6:	83 7d d4 01          	cmpl   $0x1,-0x2c(%ebp)
  402daa:	74 dc                	je     402d88 <.text+0xbf8>
  402dac:	89 04 24             	mov    %eax,(%esp)
  402daf:	e8 ac 0a 00 00       	call   403860 <___mingw_opendir>
  402db4:	89 45 cc             	mov    %eax,-0x34(%ebp)
  402db7:	85 c0                	test   %eax,%eax
  402db9:	74 a5                	je     402d60 <.text+0xbd0>
  402dbb:	8b 45 c0             	mov    -0x40(%ebp),%eax
  402dbe:	c7 45 b4 00 00 00 00 	movl   $0x0,-0x4c(%ebp)
  402dc5:	85 c0                	test   %eax,%eax
  402dc7:	74 0d                	je     402dd6 <.text+0xc46>
  402dc9:	8b 03                	mov    (%ebx),%eax
  402dcb:	89 04 24             	mov    %eax,(%esp)
  402dce:	e8 b1 10 00 00       	call   403e84 <_strlen>
  402dd3:	89 45 b4             	mov    %eax,-0x4c(%ebp)
  402dd6:	8b 45 b4             	mov    -0x4c(%ebp),%eax
  402dd9:	c7 45 b0 00 00 00 00 	movl   $0x0,-0x50(%ebp)
  402de0:	83 c0 02             	add    $0x2,%eax
  402de3:	89 45 a0             	mov    %eax,-0x60(%ebp)
  402de6:	8d b4 26 00 00 00 00 	lea    0x0(%esi,%eiz,1),%esi
  402ded:	8d 76 00             	lea    0x0(%esi),%esi
  402df0:	8b 45 cc             	mov    -0x34(%ebp),%eax
  402df3:	89 04 24             	mov    %eax,(%esp)
  402df6:	e8 65 0c 00 00       	call   403a60 <___mingw_readdir>
  402dfb:	89 c6                	mov    %eax,%esi
  402dfd:	85 c0                	test   %eax,%eax
  402dff:	0f 84 30 01 00 00    	je     402f35 <.text+0xda5>
  402e05:	8b 7d c4             	mov    -0x3c(%ebp),%edi
  402e08:	85 ff                	test   %edi,%edi
  402e0a:	74 06                	je     402e12 <.text+0xc82>
  402e0c:	83 7e 08 10          	cmpl   $0x10,0x8(%esi)
  402e10:	75 de                	jne    402df0 <.text+0xc60>
  402e12:	8d 7e 0c             	lea    0xc(%esi),%edi
  402e15:	8b 4d d0             	mov    -0x30(%ebp),%ecx
  402e18:	8b 45 b8             	mov    -0x48(%ebp),%eax
  402e1b:	89 fa                	mov    %edi,%edx
  402e1d:	e8 9e f6 ff ff       	call   4024c0 <.text+0x330>
  402e22:	85 c0                	test   %eax,%eax
  402e24:	75 ca                	jne    402df0 <.text+0xc60>
  402e26:	0f b7 4e 06          	movzwl 0x6(%esi),%ecx
  402e2a:	8b 45 a0             	mov    -0x60(%ebp),%eax
  402e2d:	89 65 ac             	mov    %esp,-0x54(%ebp)
  402e30:	8d 44 01 0f          	lea    0xf(%ecx,%eax,1),%eax
  402e34:	c1 e8 04             	shr    $0x4,%eax
  402e37:	c1 e0 04             	shl    $0x4,%eax
  402e3a:	e8 f1 0f 00 00       	call   403e30 <___chkstk_ms>
  402e3f:	8b 75 b4             	mov    -0x4c(%ebp),%esi
  402e42:	29 c4                	sub    %eax,%esp
  402e44:	8d 54 24 0c          	lea    0xc(%esp),%edx
  402e48:	89 55 a8             	mov    %edx,-0x58(%ebp)
  402e4b:	89 d0                	mov    %edx,%eax
  402e4d:	85 f6                	test   %esi,%esi
  402e4f:	0f 85 3f 01 00 00    	jne    402f94 <.text+0xe04>
  402e55:	83 c1 01             	add    $0x1,%ecx
  402e58:	89 55 a4             	mov    %edx,-0x5c(%ebp)
  402e5b:	89 4c 24 08          	mov    %ecx,0x8(%esp)
  402e5f:	89 7c 24 04          	mov    %edi,0x4(%esp)
  402e63:	89 e7                	mov    %esp,%edi
  402e65:	89 04 24             	mov    %eax,(%esp)
  402e68:	e8 5f 10 00 00       	call   403ecc <_memcpy>
  402e6d:	8b 55 a4             	mov    -0x5c(%ebp),%edx
  402e70:	89 14 24             	mov    %edx,(%esp)
  402e73:	e8 0c 10 00 00       	call   403e84 <_strlen>
  402e78:	83 c0 10             	add    $0x10,%eax
  402e7b:	c1 e8 04             	shr    $0x4,%eax
  402e7e:	c1 e0 04             	shl    $0x4,%eax
  402e81:	e8 aa 0f 00 00       	call   403e30 <___chkstk_ms>
  402e86:	8b 75 a8             	mov    -0x58(%ebp),%esi
  402e89:	29 c4                	sub    %eax,%esp
  402e8b:	8d 44 24 0c          	lea    0xc(%esp),%eax
  402e8f:	89 45 a4             	mov    %eax,-0x5c(%ebp)
  402e92:	89 c2                	mov    %eax,%edx
  402e94:	eb 16                	jmp    402eac <.text+0xd1c>
  402e96:	8d b4 26 00 00 00 00 	lea    0x0(%esi,%eiz,1),%esi
  402e9d:	8d 76 00             	lea    0x0(%esi),%esi
  402ea0:	83 c2 01             	add    $0x1,%edx
  402ea3:	89 ce                	mov    %ecx,%esi
  402ea5:	88 42 ff             	mov    %al,-0x1(%edx)
  402ea8:	84 c0                	test   %al,%al
  402eaa:	74 1b                	je     402ec7 <.text+0xd37>
  402eac:	0f b6 06             	movzbl (%esi),%eax
  402eaf:	8d 4e 01             	lea    0x1(%esi),%ecx
  402eb2:	3c 7f                	cmp    $0x7f,%al
  402eb4:	75 ea                	jne    402ea0 <.text+0xd10>
  402eb6:	0f b6 46 01          	movzbl 0x1(%esi),%eax
  402eba:	83 c2 01             	add    $0x1,%edx
  402ebd:	83 c6 02             	add    $0x2,%esi
  402ec0:	88 42 ff             	mov    %al,-0x1(%edx)
  402ec3:	84 c0                	test   %al,%al
  402ec5:	75 e5                	jne    402eac <.text+0xd1c>
  402ec7:	8b 45 a4             	mov    -0x5c(%ebp),%eax
  402eca:	89 04 24             	mov    %eax,(%esp)
  402ecd:	e8 92 0f 00 00       	call   403e64 <_strdup>
  402ed2:	89 fc                	mov    %edi,%esp
  402ed4:	89 c6                	mov    %eax,%esi
  402ed6:	85 c0                	test   %eax,%eax
  402ed8:	0f 84 38 02 00 00    	je     403116 <.text+0xf86>
  402ede:	8b 7d d4             	mov    -0x2c(%ebp),%edi
  402ee1:	31 c0                	xor    %eax,%eax
  402ee3:	83 ff 02             	cmp    $0x2,%edi
  402ee6:	0f 94 c0             	sete   %al
  402ee9:	83 e8 01             	sub    $0x1,%eax
  402eec:	21 c7                	and    %eax,%edi
  402eee:	89 7d d4             	mov    %edi,-0x2c(%ebp)
  402ef1:	f6 45 d0 40          	testb  $0x40,-0x30(%ebp)
  402ef5:	0f 84 e2 00 00 00    	je     402fdd <.text+0xe4d>
  402efb:	8b 55 08             	mov    0x8(%ebp),%edx
  402efe:	85 d2                	test   %edx,%edx
  402f00:	0f 85 5e 01 00 00    	jne    403064 <.text+0xed4>
  402f06:	8b 65 ac             	mov    -0x54(%ebp),%esp
  402f09:	e9 e2 fe ff ff       	jmp    402df0 <.text+0xc60>
  402f0e:	89 45 d4             	mov    %eax,-0x2c(%ebp)
  402f11:	e9 42 fc ff ff       	jmp    402b58 <.text+0x9c8>
  402f16:	8d 45 d8             	lea    -0x28(%ebp),%eax
  402f19:	8b 55 d0             	mov    -0x30(%ebp),%edx
  402f1c:	89 04 24             	mov    %eax,(%esp)
  402f1f:	8b 4d c8             	mov    -0x38(%ebp),%ecx
  402f22:	8b 45 c0             	mov    -0x40(%ebp),%eax
  402f25:	80 ce 80             	or     $0x80,%dh
  402f28:	e8 63 f9 ff ff       	call   402890 <.text+0x700>
  402f2d:	89 45 d4             	mov    %eax,-0x2c(%ebp)
  402f30:	e9 5e fa ff ff       	jmp    402993 <.text+0x803>
  402f35:	8b 45 cc             	mov    -0x34(%ebp),%eax
  402f38:	89 04 24             	mov    %eax,(%esp)
  402f3b:	e8 70 0b 00 00       	call   403ab0 <___mingw_closedir>
  402f40:	8b 45 b0             	mov    -0x50(%ebp),%eax
  402f43:	85 c0                	test   %eax,%eax
  402f45:	0f 84 44 fe ff ff    	je     402d8f <.text+0xbff>
  402f4b:	8b 55 08             	mov    0x8(%ebp),%edx
  402f4e:	8b 45 b0             	mov    -0x50(%ebp),%eax
  402f51:	e8 9a f8 ff ff       	call   4027f0 <.text+0x660>
  402f56:	e9 34 fe ff ff       	jmp    402d8f <.text+0xbff>
  402f5b:	89 34 24             	mov    %esi,(%esp)
  402f5e:	e8 01 0f 00 00       	call   403e64 <_strdup>
  402f63:	89 dc                	mov    %ebx,%esp
  402f65:	85 c0                	test   %eax,%eax
  402f67:	74 24                	je     402f8d <.text+0xdfd>
  402f69:	8b 55 08             	mov    0x8(%ebp),%edx
  402f6c:	85 d2                	test   %edx,%edx
  402f6e:	74 1d                	je     402f8d <.text+0xdfd>
  402f70:	8b 55 08             	mov    0x8(%ebp),%edx
  402f73:	e8 18 f8 ff ff       	call   402790 <.text+0x600>
  402f78:	8b 45 e0             	mov    -0x20(%ebp),%eax
  402f7b:	89 c7                	mov    %eax,%edi
  402f7d:	89 3c 24             	mov    %edi,(%esp)
  402f80:	e8 db f1 ff ff       	call   402160 <___mingw_aligned_free>
  402f85:	8b 65 bc             	mov    -0x44(%ebp),%esp
  402f88:	e9 ce fb ff ff       	jmp    402b5b <.text+0x9cb>
  402f8d:	8b 45 e0             	mov    -0x20(%ebp),%eax
  402f90:	89 c7                	mov    %eax,%edi
  402f92:	eb e9                	jmp    402f7d <.text+0xded>
  402f94:	8b 75 b4             	mov    -0x4c(%ebp),%esi
  402f97:	8b 03                	mov    (%ebx),%eax
  402f99:	89 4d 98             	mov    %ecx,-0x68(%ebp)
  402f9c:	89 14 24             	mov    %edx,(%esp)
  402f9f:	89 74 24 08          	mov    %esi,0x8(%esp)
  402fa3:	89 44 24 04          	mov    %eax,0x4(%esp)
  402fa7:	89 55 a4             	mov    %edx,-0x5c(%ebp)
  402faa:	e8 1d 0f 00 00       	call   403ecc <_memcpy>
  402faf:	0f b6 44 34 0b       	movzbl 0xb(%esp,%esi,1),%eax
  402fb4:	8b 55 a4             	mov    -0x5c(%ebp),%edx
  402fb7:	8b 4d 98             	mov    -0x68(%ebp),%ecx
  402fba:	3c 2f                	cmp    $0x2f,%al
  402fbc:	0f 84 b1 00 00 00    	je     403073 <.text+0xee3>
  402fc2:	3c 5c                	cmp    $0x5c,%al
  402fc4:	0f 84 a9 00 00 00    	je     403073 <.text+0xee3>
  402fca:	8b 75 b4             	mov    -0x4c(%ebp),%esi
  402fcd:	0f b6 45 9f          	movzbl -0x61(%ebp),%eax
  402fd1:	88 04 32             	mov    %al,(%edx,%esi,1)
  402fd4:	8d 44 32 01          	lea    0x1(%edx,%esi,1),%eax
  402fd8:	e9 78 fe ff ff       	jmp    402e55 <.text+0xcc5>
  402fdd:	8b 7d b0             	mov    -0x50(%ebp),%edi
  402fe0:	85 ff                	test   %edi,%edi
  402fe2:	0f 84 ff 00 00 00    	je     4030e7 <.text+0xf57>
  402fe8:	8b 45 d0             	mov    -0x30(%ebp),%eax
  402feb:	89 5d a8             	mov    %ebx,-0x58(%ebp)
  402fee:	25 00 40 00 00       	and    $0x4000,%eax
  402ff3:	89 c3                	mov    %eax,%ebx
  402ff5:	eb 1f                	jmp    403016 <.text+0xe86>
  402ff7:	8d b4 26 00 00 00 00 	lea    0x0(%esi,%eiz,1),%esi
  402ffe:	66 90                	xchg   %ax,%ax
  403000:	e8 87 0e 00 00       	call   403e8c <_strcoll>
  403005:	8b 0f                	mov    (%edi),%ecx
  403007:	8b 57 04             	mov    0x4(%edi),%edx
  40300a:	85 c0                	test   %eax,%eax
  40300c:	7f 02                	jg     403010 <.text+0xe80>
  40300e:	89 ca                	mov    %ecx,%edx
  403010:	85 d2                	test   %edx,%edx
  403012:	74 17                	je     40302b <.text+0xe9b>
  403014:	89 d7                	mov    %edx,%edi
  403016:	8b 47 08             	mov    0x8(%edi),%eax
  403019:	89 34 24             	mov    %esi,(%esp)
  40301c:	89 44 24 04          	mov    %eax,0x4(%esp)
  403020:	85 db                	test   %ebx,%ebx
  403022:	75 dc                	jne    403000 <.text+0xe70>
  403024:	e8 33 0e 00 00       	call   403e5c <_stricoll>
  403029:	eb da                	jmp    403005 <.text+0xe75>
  40302b:	8b 5d a8             	mov    -0x58(%ebp),%ebx
  40302e:	89 45 a8             	mov    %eax,-0x58(%ebp)
  403031:	c7 04 24 0c 00 00 00 	movl   $0xc,(%esp)
  403038:	e8 9f 0e 00 00       	call   403edc <_malloc>
  40303d:	8b 55 a8             	mov    -0x58(%ebp),%edx
  403040:	85 c0                	test   %eax,%eax
  403042:	0f 84 be fe ff ff    	je     402f06 <.text+0xd76>
  403048:	89 70 08             	mov    %esi,0x8(%eax)
  40304b:	c7 40 04 00 00 00 00 	movl   $0x0,0x4(%eax)
  403052:	c7 00 00 00 00 00    	movl   $0x0,(%eax)
  403058:	85 d2                	test   %edx,%edx
  40305a:	7e 21                	jle    40307d <.text+0xeed>
  40305c:	89 47 04             	mov    %eax,0x4(%edi)
  40305f:	e9 a2 fe ff ff       	jmp    402f06 <.text+0xd76>
  403064:	8b 55 08             	mov    0x8(%ebp),%edx
  403067:	89 f0                	mov    %esi,%eax
  403069:	e8 22 f7 ff ff       	call   402790 <.text+0x600>
  40306e:	e9 93 fe ff ff       	jmp    402f06 <.text+0xd76>
  403073:	8b 45 b4             	mov    -0x4c(%ebp),%eax
  403076:	01 d0                	add    %edx,%eax
  403078:	e9 d8 fd ff ff       	jmp    402e55 <.text+0xcc5>
  40307d:	89 07                	mov    %eax,(%edi)
  40307f:	e9 82 fe ff ff       	jmp    402f06 <.text+0xd76>
  403084:	8b 7d c4             	mov    -0x3c(%ebp),%edi
  403087:	8b 55 d0             	mov    -0x30(%ebp),%edx
  40308a:	89 f8                	mov    %edi,%eax
  40308c:	e8 5f f6 ff ff       	call   4026f0 <.text+0x560>
  403091:	89 45 d4             	mov    %eax,-0x2c(%ebp)
  403094:	85 c0                	test   %eax,%eax
  403096:	74 08                	je     4030a0 <.text+0xf10>
  403098:	8b 5d c4             	mov    -0x3c(%ebp),%ebx
  40309b:	e9 35 f9 ff ff       	jmp    4029d5 <.text+0x845>
  4030a0:	89 3c 24             	mov    %edi,(%esp)
  4030a3:	89 e3                	mov    %esp,%ebx
  4030a5:	e8 da 0d 00 00       	call   403e84 <_strlen>
  4030aa:	83 c0 10             	add    $0x10,%eax
  4030ad:	c1 e8 04             	shr    $0x4,%eax
  4030b0:	c1 e0 04             	shl    $0x4,%eax
  4030b3:	e8 78 0d 00 00       	call   403e30 <___chkstk_ms>
  4030b8:	29 c4                	sub    %eax,%esp
  4030ba:	89 f9                	mov    %edi,%ecx
  4030bc:	8d 74 24 0c          	lea    0xc(%esp),%esi
  4030c0:	89 f2                	mov    %esi,%edx
  4030c2:	eb 10                	jmp    4030d4 <.text+0xf44>
  4030c4:	89 f9                	mov    %edi,%ecx
  4030c6:	83 c2 01             	add    $0x1,%edx
  4030c9:	88 42 ff             	mov    %al,-0x1(%edx)
  4030cc:	84 c0                	test   %al,%al
  4030ce:	0f 84 87 fe ff ff    	je     402f5b <.text+0xdcb>
  4030d4:	0f b6 01             	movzbl (%ecx),%eax
  4030d7:	8d 79 01             	lea    0x1(%ecx),%edi
  4030da:	3c 7f                	cmp    $0x7f,%al
  4030dc:	75 e6                	jne    4030c4 <.text+0xf34>
  4030de:	0f b6 41 01          	movzbl 0x1(%ecx),%eax
  4030e2:	83 c1 02             	add    $0x2,%ecx
  4030e5:	eb df                	jmp    4030c6 <.text+0xf36>
  4030e7:	c7 04 24 0c 00 00 00 	movl   $0xc,(%esp)
  4030ee:	e8 e9 0d 00 00       	call   403edc <_malloc>
  4030f3:	89 45 b0             	mov    %eax,-0x50(%ebp)
  4030f6:	85 c0                	test   %eax,%eax
  4030f8:	0f 84 08 fe ff ff    	je     402f06 <.text+0xd76>
  4030fe:	8b 45 b0             	mov    -0x50(%ebp),%eax
  403101:	89 70 08             	mov    %esi,0x8(%eax)
  403104:	c7 40 04 00 00 00 00 	movl   $0x0,0x4(%eax)
  40310b:	c7 00 00 00 00 00    	movl   $0x0,(%eax)
  403111:	e9 f0 fd ff ff       	jmp    402f06 <.text+0xd76>
  403116:	c7 45 d4 03 00 00 00 	movl   $0x3,-0x2c(%ebp)
  40311d:	e9 e4 fd ff ff       	jmp    402f06 <.text+0xd76>
  403122:	8d b4 26 00 00 00 00 	lea    0x0(%esi,%eiz,1),%esi
  403129:	8d b4 26 00 00 00 00 	lea    0x0(%esi,%eiz,1),%esi

00403130 <___mingw_glob>:
  403130:	55                   	push   %ebp
  403131:	89 e5                	mov    %esp,%ebp
  403133:	57                   	push   %edi
  403134:	56                   	push   %esi
  403135:	53                   	push   %ebx
  403136:	83 ec 2c             	sub    $0x2c,%esp
  403139:	8b 75 14             	mov    0x14(%ebp),%esi
  40313c:	8b 5d 08             	mov    0x8(%ebp),%ebx
  40313f:	8b 7d 0c             	mov    0xc(%ebp),%edi
  403142:	85 f6                	test   %esi,%esi
  403144:	74 08                	je     40314e <___mingw_glob+0x1e>
  403146:	f7 c7 02 00 00 00    	test   $0x2,%edi
  40314c:	74 3a                	je     403188 <___mingw_glob+0x58>
  40314e:	81 3e c4 62 40 00    	cmpl   $0x4062c4,(%esi)
  403154:	74 0d                	je     403163 <___mingw_glob+0x33>
  403156:	89 f0                	mov    %esi,%eax
  403158:	e8 e3 f6 ff ff       	call   402840 <.text+0x6b0>
  40315d:	c7 06 c4 62 40 00    	movl   $0x4062c4,(%esi)
  403163:	89 34 24             	mov    %esi,(%esp)
  403166:	8b 4d 10             	mov    0x10(%ebp),%ecx
  403169:	89 fa                	mov    %edi,%edx
  40316b:	89 d8                	mov    %ebx,%eax
  40316d:	e8 1e f7 ff ff       	call   402890 <.text+0x700>
  403172:	89 c1                	mov    %eax,%ecx
  403174:	83 f8 02             	cmp    $0x2,%eax
  403177:	74 1f                	je     403198 <___mingw_glob+0x68>
  403179:	8d 65 f4             	lea    -0xc(%ebp),%esp
  40317c:	89 c8                	mov    %ecx,%eax
  40317e:	5b                   	pop    %ebx
  40317f:	5e                   	pop    %esi
  403180:	5f                   	pop    %edi
  403181:	5d                   	pop    %ebp
  403182:	c3                   	ret    
  403183:	8d 74 26 00          	lea    0x0(%esi,%eiz,1),%esi
  403187:	90                   	nop
  403188:	c7 46 0c 00 00 00 00 	movl   $0x0,0xc(%esi)
  40318f:	eb bd                	jmp    40314e <___mingw_glob+0x1e>
  403191:	8d b4 26 00 00 00 00 	lea    0x0(%esi,%eiz,1),%esi
  403198:	83 e7 10             	and    $0x10,%edi
  40319b:	74 dc                	je     403179 <___mingw_glob+0x49>
  40319d:	89 45 dc             	mov    %eax,-0x24(%ebp)
  4031a0:	89 65 e4             	mov    %esp,-0x1c(%ebp)
  4031a3:	89 1c 24             	mov    %ebx,(%esp)
  4031a6:	e8 d9 0c 00 00       	call   403e84 <_strlen>
  4031ab:	83 c0 10             	add    $0x10,%eax
  4031ae:	c1 e8 04             	shr    $0x4,%eax
  4031b1:	c1 e0 04             	shl    $0x4,%eax
  4031b4:	e8 77 0c 00 00       	call   403e30 <___chkstk_ms>
  4031b9:	8b 4d dc             	mov    -0x24(%ebp),%ecx
  4031bc:	29 c4                	sub    %eax,%esp
  4031be:	8d 44 24 04          	lea    0x4(%esp),%eax
  4031c2:	89 45 e0             	mov    %eax,-0x20(%ebp)
  4031c5:	89 c2                	mov    %eax,%edx
  4031c7:	eb 13                	jmp    4031dc <___mingw_glob+0xac>
  4031c9:	8d b4 26 00 00 00 00 	lea    0x0(%esi,%eiz,1),%esi
  4031d0:	83 c2 01             	add    $0x1,%edx
  4031d3:	89 fb                	mov    %edi,%ebx
  4031d5:	88 42 ff             	mov    %al,-0x1(%edx)
  4031d8:	84 c0                	test   %al,%al
  4031da:	74 1b                	je     4031f7 <___mingw_glob+0xc7>
  4031dc:	0f b6 03             	movzbl (%ebx),%eax
  4031df:	8d 7b 01             	lea    0x1(%ebx),%edi
  4031e2:	3c 7f                	cmp    $0x7f,%al
  4031e4:	75 ea                	jne    4031d0 <___mingw_glob+0xa0>
  4031e6:	0f b6 43 01          	movzbl 0x1(%ebx),%eax
  4031ea:	83 c2 01             	add    $0x1,%edx
  4031ed:	83 c3 02             	add    $0x2,%ebx
  4031f0:	88 42 ff             	mov    %al,-0x1(%edx)
  4031f3:	84 c0                	test   %al,%al
  4031f5:	75 e5                	jne    4031dc <___mingw_glob+0xac>
  4031f7:	8b 45 e0             	mov    -0x20(%ebp),%eax
  4031fa:	89 4d dc             	mov    %ecx,-0x24(%ebp)
  4031fd:	89 04 24             	mov    %eax,(%esp)
  403200:	e8 5f 0c 00 00       	call   403e64 <_strdup>
  403205:	8b 65 e4             	mov    -0x1c(%ebp),%esp
  403208:	8b 4d dc             	mov    -0x24(%ebp),%ecx
  40320b:	85 c0                	test   %eax,%eax
  40320d:	0f 84 66 ff ff ff    	je     403179 <___mingw_glob+0x49>
  403213:	89 f2                	mov    %esi,%edx
  403215:	89 4d e4             	mov    %ecx,-0x1c(%ebp)
  403218:	e8 73 f5 ff ff       	call   402790 <.text+0x600>
  40321d:	8b 4d e4             	mov    -0x1c(%ebp),%ecx
  403220:	e9 54 ff ff ff       	jmp    403179 <___mingw_glob+0x49>
  403225:	8d b4 26 00 00 00 00 	lea    0x0(%esi,%eiz,1),%esi
  40322c:	8d 74 26 00          	lea    0x0(%esi,%eiz,1),%esi

00403230 <___mingw_globfree>:
  403230:	57                   	push   %edi
  403231:	56                   	push   %esi
  403232:	53                   	push   %ebx
  403233:	83 ec 10             	sub    $0x10,%esp
  403236:	8b 74 24 20          	mov    0x20(%esp),%esi
  40323a:	81 3e c4 62 40 00    	cmpl   $0x4062c4,(%esi)
  403240:	74 0e                	je     403250 <___mingw_globfree+0x20>
  403242:	83 c4 10             	add    $0x10,%esp
  403245:	5b                   	pop    %ebx
  403246:	5e                   	pop    %esi
  403247:	5f                   	pop    %edi
  403248:	c3                   	ret    
  403249:	8d b4 26 00 00 00 00 	lea    0x0(%esi,%eiz,1),%esi
  403250:	8b 7e 04             	mov    0x4(%esi),%edi
  403253:	8b 5e 0c             	mov    0xc(%esi),%ebx
  403256:	85 ff                	test   %edi,%edi
  403258:	7e 1b                	jle    403275 <___mingw_globfree+0x45>
  40325a:	01 df                	add    %ebx,%edi
  40325c:	8d 74 26 00          	lea    0x0(%esi,%eiz,1),%esi
  403260:	8b 46 08             	mov    0x8(%esi),%eax
  403263:	8b 04 98             	mov    (%eax,%ebx,4),%eax
  403266:	83 c3 01             	add    $0x1,%ebx
  403269:	89 04 24             	mov    %eax,(%esp)
  40326c:	e8 ef ee ff ff       	call   402160 <___mingw_aligned_free>
  403271:	39 df                	cmp    %ebx,%edi
  403273:	75 eb                	jne    403260 <___mingw_globfree+0x30>
  403275:	8b 46 08             	mov    0x8(%esi),%eax
  403278:	89 44 24 20          	mov    %eax,0x20(%esp)
  40327c:	83 c4 10             	add    $0x10,%esp
  40327f:	5b                   	pop    %ebx
  403280:	5e                   	pop    %esi
  403281:	5f                   	pop    %edi
  403282:	e9 d9 ee ff ff       	jmp    402160 <___mingw_aligned_free>
  403287:	90                   	nop
  403288:	90                   	nop
  403289:	90                   	nop
  40328a:	90                   	nop
  40328b:	90                   	nop
  40328c:	90                   	nop
  40328d:	90                   	nop
  40328e:	90                   	nop
  40328f:	90                   	nop

00403290 <___mingw_dirname>:
  403290:	55                   	push   %ebp
  403291:	89 e5                	mov    %esp,%ebp
  403293:	57                   	push   %edi
  403294:	56                   	push   %esi
  403295:	53                   	push   %ebx
  403296:	83 ec 2c             	sub    $0x2c,%esp
  403299:	c7 44 24 04 00 00 00 	movl   $0x0,0x4(%esp)
  4032a0:	00 
  4032a1:	c7 04 24 02 00 00 00 	movl   $0x2,(%esp)
  4032a8:	e8 f7 0b 00 00       	call   403ea4 <_setlocale>
  4032ad:	89 c3                	mov    %eax,%ebx
  4032af:	85 c0                	test   %eax,%eax
  4032b1:	74 0a                	je     4032bd <___mingw_dirname+0x2d>
  4032b3:	89 04 24             	mov    %eax,(%esp)
  4032b6:	e8 a9 0b 00 00       	call   403e64 <_strdup>
  4032bb:	89 c3                	mov    %eax,%ebx
  4032bd:	c7 44 24 04 d8 62 40 	movl   $0x4062d8,0x4(%esp)
  4032c4:	00 
  4032c5:	c7 04 24 02 00 00 00 	movl   $0x2,(%esp)
  4032cc:	e8 d3 0b 00 00       	call   403ea4 <_setlocale>
  4032d1:	8b 4d 08             	mov    0x8(%ebp),%ecx
  4032d4:	85 c9                	test   %ecx,%ecx
  4032d6:	74 08                	je     4032e0 <___mingw_dirname+0x50>
  4032d8:	8b 45 08             	mov    0x8(%ebp),%eax
  4032db:	80 38 00             	cmpb   $0x0,(%eax)
  4032de:	75 78                	jne    403358 <___mingw_dirname+0xc8>
  4032e0:	c7 44 24 08 00 00 00 	movl   $0x0,0x8(%esp)
  4032e7:	00 
  4032e8:	c7 44 24 04 da 62 40 	movl   $0x4062da,0x4(%esp)
  4032ef:	00 
  4032f0:	c7 04 24 00 00 00 00 	movl   $0x0,(%esp)
  4032f7:	e8 70 0b 00 00       	call   403e6c <_wcstombs>
  4032fc:	8d 70 01             	lea    0x1(%eax),%esi
  4032ff:	89 74 24 04          	mov    %esi,0x4(%esp)
  403303:	a1 68 80 40 00       	mov    0x408068,%eax
  403308:	89 04 24             	mov    %eax,(%esp)
  40330b:	e8 c0 09 00 00       	call   403cd0 <___mingw_realloc>
  403310:	a3 68 80 40 00       	mov    %eax,0x408068
  403315:	89 74 24 08          	mov    %esi,0x8(%esp)
  403319:	c7 44 24 04 da 62 40 	movl   $0x4062da,0x4(%esp)
  403320:	00 
  403321:	89 04 24             	mov    %eax,(%esp)
  403324:	e8 43 0b 00 00       	call   403e6c <_wcstombs>
  403329:	89 5c 24 04          	mov    %ebx,0x4(%esp)
  40332d:	c7 04 24 02 00 00 00 	movl   $0x2,(%esp)
  403334:	e8 6b 0b 00 00       	call   403ea4 <_setlocale>
  403339:	89 1c 24             	mov    %ebx,(%esp)
  40333c:	e8 1f ee ff ff       	call   402160 <___mingw_aligned_free>
  403341:	8b 35 68 80 40 00    	mov    0x408068,%esi
  403347:	8d 65 f4             	lea    -0xc(%ebp),%esp
  40334a:	89 f0                	mov    %esi,%eax
  40334c:	5b                   	pop    %ebx
  40334d:	5e                   	pop    %esi
  40334e:	5f                   	pop    %edi
  40334f:	5d                   	pop    %ebp
  403350:	c3                   	ret    
  403351:	8d b4 26 00 00 00 00 	lea    0x0(%esi,%eiz,1),%esi
  403358:	89 65 dc             	mov    %esp,-0x24(%ebp)
  40335b:	c7 44 24 08 00 00 00 	movl   $0x0,0x8(%esp)
  403362:	00 
  403363:	8b 45 08             	mov    0x8(%ebp),%eax
  403366:	c7 04 24 00 00 00 00 	movl   $0x0,(%esp)
  40336d:	89 44 24 04          	mov    %eax,0x4(%esp)
  403371:	e8 5e 0b 00 00       	call   403ed4 <_mbstowcs>
  403376:	89 c2                	mov    %eax,%edx
  403378:	8d 44 00 11          	lea    0x11(%eax,%eax,1),%eax
  40337c:	c1 e8 04             	shr    $0x4,%eax
  40337f:	c1 e0 04             	shl    $0x4,%eax
  403382:	e8 a9 0a 00 00       	call   403e30 <___chkstk_ms>
  403387:	29 c4                	sub    %eax,%esp
  403389:	89 54 24 08          	mov    %edx,0x8(%esp)
  40338d:	8b 45 08             	mov    0x8(%ebp),%eax
  403390:	8d 7c 24 0c          	lea    0xc(%esp),%edi
  403394:	89 3c 24             	mov    %edi,(%esp)
  403397:	89 44 24 04          	mov    %eax,0x4(%esp)
  40339b:	e8 34 0b 00 00       	call   403ed4 <_mbstowcs>
  4033a0:	31 d2                	xor    %edx,%edx
  4033a2:	83 f8 01             	cmp    $0x1,%eax
  4033a5:	89 45 d8             	mov    %eax,-0x28(%ebp)
  4033a8:	66 89 14 47          	mov    %dx,(%edi,%eax,2)
  4033ac:	0f b7 07             	movzwl (%edi),%eax
  4033af:	76 3f                	jbe    4033f0 <___mingw_dirname+0x160>
  4033b1:	89 c1                	mov    %eax,%ecx
  4033b3:	66 89 45 e2          	mov    %ax,-0x1e(%ebp)
  4033b7:	0f b7 47 02          	movzwl 0x2(%edi),%eax
  4033bb:	89 7d e4             	mov    %edi,-0x1c(%ebp)
  4033be:	66 83 f9 2f          	cmp    $0x2f,%cx
  4033c2:	0f 84 08 02 00 00    	je     4035d0 <___mingw_dirname+0x340>
  4033c8:	66 83 f9 5c          	cmp    $0x5c,%cx
  4033cc:	0f 84 fe 01 00 00    	je     4035d0 <___mingw_dirname+0x340>
  4033d2:	66 83 f8 3a          	cmp    $0x3a,%ax
  4033d6:	75 1f                	jne    4033f7 <___mingw_dirname+0x167>
  4033d8:	8d 47 04             	lea    0x4(%edi),%eax
  4033db:	89 45 e4             	mov    %eax,-0x1c(%ebp)
  4033de:	0f b7 47 04          	movzwl 0x4(%edi),%eax
  4033e2:	66 89 45 e2          	mov    %ax,-0x1e(%ebp)
  4033e6:	eb 0f                	jmp    4033f7 <___mingw_dirname+0x167>
  4033e8:	8d b4 26 00 00 00 00 	lea    0x0(%esi,%eiz,1),%esi
  4033ef:	90                   	nop
  4033f0:	66 89 45 e2          	mov    %ax,-0x1e(%ebp)
  4033f4:	89 7d e4             	mov    %edi,-0x1c(%ebp)
  4033f7:	66 83 7d e2 00       	cmpw   $0x0,-0x1e(%ebp)
  4033fc:	75 12                	jne    403410 <___mingw_dirname+0x180>
  4033fe:	8b 65 dc             	mov    -0x24(%ebp),%esp
  403401:	e9 da fe ff ff       	jmp    4032e0 <___mingw_dirname+0x50>
  403406:	8d b4 26 00 00 00 00 	lea    0x0(%esi,%eiz,1),%esi
  40340d:	8d 76 00             	lea    0x0(%esi),%esi
  403410:	8b 45 e4             	mov    -0x1c(%ebp),%eax
  403413:	0f b7 55 e2          	movzwl -0x1e(%ebp),%edx
  403417:	89 c1                	mov    %eax,%ecx
  403419:	eb 19                	jmp    403434 <___mingw_dirname+0x1a4>
  40341b:	8d 74 26 00          	lea    0x0(%esi,%eiz,1),%esi
  40341f:	90                   	nop
  403420:	89 c6                	mov    %eax,%esi
  403422:	66 83 fa 5c          	cmp    $0x5c,%dx
  403426:	74 23                	je     40344b <___mingw_dirname+0x1bb>
  403428:	0f b7 56 02          	movzwl 0x2(%esi),%edx
  40342c:	83 c0 02             	add    $0x2,%eax
  40342f:	66 85 d2             	test   %dx,%dx
  403432:	74 34                	je     403468 <___mingw_dirname+0x1d8>
  403434:	66 83 fa 2f          	cmp    $0x2f,%dx
  403438:	75 e6                	jne    403420 <___mingw_dirname+0x190>
  40343a:	0f b7 10             	movzwl (%eax),%edx
  40343d:	66 83 fa 2f          	cmp    $0x2f,%dx
  403441:	75 11                	jne    403454 <___mingw_dirname+0x1c4>
  403443:	8d 74 26 00          	lea    0x0(%esi,%eiz,1),%esi
  403447:	90                   	nop
  403448:	83 c0 02             	add    $0x2,%eax
  40344b:	0f b7 10             	movzwl (%eax),%edx
  40344e:	66 83 fa 2f          	cmp    $0x2f,%dx
  403452:	74 f4                	je     403448 <___mingw_dirname+0x1b8>
  403454:	66 83 fa 5c          	cmp    $0x5c,%dx
  403458:	74 ee                	je     403448 <___mingw_dirname+0x1b8>
  40345a:	89 c6                	mov    %eax,%esi
  40345c:	66 85 d2             	test   %dx,%dx
  40345f:	74 07                	je     403468 <___mingw_dirname+0x1d8>
  403461:	89 c1                	mov    %eax,%ecx
  403463:	eb c3                	jmp    403428 <___mingw_dirname+0x198>
  403465:	8d 76 00             	lea    0x0(%esi),%esi
  403468:	39 4d e4             	cmp    %ecx,-0x1c(%ebp)
  40346b:	0f 82 8f 00 00 00    	jb     403500 <___mingw_dirname+0x270>
  403471:	0f b7 45 e2          	movzwl -0x1e(%ebp),%eax
  403475:	66 83 f8 2f          	cmp    $0x2f,%ax
  403479:	74 11                	je     40348c <___mingw_dirname+0x1fc>
  40347b:	66 83 f8 5c          	cmp    $0x5c,%ax
  40347f:	74 0b                	je     40348c <___mingw_dirname+0x1fc>
  403481:	8b 45 e4             	mov    -0x1c(%ebp),%eax
  403484:	b9 2e 00 00 00       	mov    $0x2e,%ecx
  403489:	66 89 08             	mov    %cx,(%eax)
  40348c:	8b 45 e4             	mov    -0x1c(%ebp),%eax
  40348f:	31 d2                	xor    %edx,%edx
  403491:	66 89 50 02          	mov    %dx,0x2(%eax)
  403495:	c7 44 24 08 00 00 00 	movl   $0x0,0x8(%esp)
  40349c:	00 
  40349d:	89 7c 24 04          	mov    %edi,0x4(%esp)
  4034a1:	c7 04 24 00 00 00 00 	movl   $0x0,(%esp)
  4034a8:	e8 bf 09 00 00       	call   403e6c <_wcstombs>
  4034ad:	8d 50 01             	lea    0x1(%eax),%edx
  4034b0:	89 54 24 04          	mov    %edx,0x4(%esp)
  4034b4:	a1 68 80 40 00       	mov    0x408068,%eax
  4034b9:	89 55 e4             	mov    %edx,-0x1c(%ebp)
  4034bc:	89 04 24             	mov    %eax,(%esp)
  4034bf:	e8 0c 08 00 00       	call   403cd0 <___mingw_realloc>
  4034c4:	8b 55 e4             	mov    -0x1c(%ebp),%edx
  4034c7:	a3 68 80 40 00       	mov    %eax,0x408068
  4034cc:	89 c6                	mov    %eax,%esi
  4034ce:	89 54 24 08          	mov    %edx,0x8(%esp)
  4034d2:	89 7c 24 04          	mov    %edi,0x4(%esp)
  4034d6:	89 04 24             	mov    %eax,(%esp)
  4034d9:	e8 8e 09 00 00       	call   403e6c <_wcstombs>
  4034de:	89 5c 24 04          	mov    %ebx,0x4(%esp)
  4034e2:	c7 04 24 02 00 00 00 	movl   $0x2,(%esp)
  4034e9:	e8 b6 09 00 00       	call   403ea4 <_setlocale>
  4034ee:	89 1c 24             	mov    %ebx,(%esp)
  4034f1:	e8 6a ec ff ff       	call   402160 <___mingw_aligned_free>
  4034f6:	8b 65 dc             	mov    -0x24(%ebp),%esp
  4034f9:	e9 49 fe ff ff       	jmp    403347 <___mingw_dirname+0xb7>
  4034fe:	66 90                	xchg   %ax,%ax
  403500:	89 c8                	mov    %ecx,%eax
  403502:	83 e9 02             	sub    $0x2,%ecx
  403505:	39 4d e4             	cmp    %ecx,-0x1c(%ebp)
  403508:	0f 83 4d 01 00 00    	jae    40365b <___mingw_dirname+0x3cb>
  40350e:	0f b7 01             	movzwl (%ecx),%eax
  403511:	66 83 f8 2f          	cmp    $0x2f,%ax
  403515:	74 e9                	je     403500 <___mingw_dirname+0x270>
  403517:	66 83 f8 5c          	cmp    $0x5c,%ax
  40351b:	74 e3                	je     403500 <___mingw_dirname+0x270>
  40351d:	31 c0                	xor    %eax,%eax
  40351f:	66 89 41 02          	mov    %ax,0x2(%ecx)
  403523:	0f b7 07             	movzwl (%edi),%eax
  403526:	89 f9                	mov    %edi,%ecx
  403528:	66 83 f8 2f          	cmp    $0x2f,%ax
  40352c:	74 12                	je     403540 <___mingw_dirname+0x2b0>
  40352e:	66 83 f8 5c          	cmp    $0x5c,%ax
  403532:	0f 85 cd 00 00 00    	jne    403605 <___mingw_dirname+0x375>
  403538:	8d b4 26 00 00 00 00 	lea    0x0(%esi,%eiz,1),%esi
  40353f:	90                   	nop
  403540:	0f b7 51 02          	movzwl 0x2(%ecx),%edx
  403544:	83 c1 02             	add    $0x2,%ecx
  403547:	66 83 fa 2f          	cmp    $0x2f,%dx
  40354b:	74 f3                	je     403540 <___mingw_dirname+0x2b0>
  40354d:	66 83 fa 5c          	cmp    $0x5c,%dx
  403551:	74 ed                	je     403540 <___mingw_dirname+0x2b0>
  403553:	89 ca                	mov    %ecx,%edx
  403555:	29 fa                	sub    %edi,%edx
  403557:	83 fa 04             	cmp    $0x4,%edx
  40355a:	0f 8e a5 00 00 00    	jle    403605 <___mingw_dirname+0x375>
  403560:	89 f9                	mov    %edi,%ecx
  403562:	66 85 c0             	test   %ax,%ax
  403565:	0f 84 c0 00 00 00    	je     40362b <___mingw_dirname+0x39b>
  40356b:	89 5d e4             	mov    %ebx,-0x1c(%ebp)
  40356e:	89 ca                	mov    %ecx,%edx
  403570:	eb 24                	jmp    403596 <___mingw_dirname+0x306>
  403572:	8d b6 00 00 00 00    	lea    0x0(%esi),%esi
  403578:	0f b7 5a 02          	movzwl 0x2(%edx),%ebx
  40357c:	8d 72 02             	lea    0x2(%edx),%esi
  40357f:	66 83 f8 5c          	cmp    $0x5c,%ax
  403583:	0f 84 97 00 00 00    	je     403620 <___mingw_dirname+0x390>
  403589:	89 d8                	mov    %ebx,%eax
  40358b:	89 f2                	mov    %esi,%edx
  40358d:	66 85 c0             	test   %ax,%ax
  403590:	0f 84 92 00 00 00    	je     403628 <___mingw_dirname+0x398>
  403596:	83 c1 02             	add    $0x2,%ecx
  403599:	66 89 41 fe          	mov    %ax,-0x2(%ecx)
  40359d:	66 83 f8 2f          	cmp    $0x2f,%ax
  4035a1:	75 d5                	jne    403578 <___mingw_dirname+0x2e8>
  4035a3:	0f b7 1a             	movzwl (%edx),%ebx
  4035a6:	66 83 fb 5c          	cmp    $0x5c,%bx
  4035aa:	74 0c                	je     4035b8 <___mingw_dirname+0x328>
  4035ac:	89 d8                	mov    %ebx,%eax
  4035ae:	66 83 fb 2f          	cmp    $0x2f,%bx
  4035b2:	75 d9                	jne    40358d <___mingw_dirname+0x2fd>
  4035b4:	8d 74 26 00          	lea    0x0(%esi,%eiz,1),%esi
  4035b8:	0f b7 42 02          	movzwl 0x2(%edx),%eax
  4035bc:	83 c2 02             	add    $0x2,%edx
  4035bf:	66 83 f8 2f          	cmp    $0x2f,%ax
  4035c3:	74 f3                	je     4035b8 <___mingw_dirname+0x328>
  4035c5:	66 83 f8 5c          	cmp    $0x5c,%ax
  4035c9:	74 ed                	je     4035b8 <___mingw_dirname+0x328>
  4035cb:	eb c0                	jmp    40358d <___mingw_dirname+0x2fd>
  4035cd:	8d 76 00             	lea    0x0(%esi),%esi
  4035d0:	66 39 45 e2          	cmp    %ax,-0x1e(%ebp)
  4035d4:	0f 85 1d fe ff ff    	jne    4033f7 <___mingw_dirname+0x167>
  4035da:	66 83 7f 04 00       	cmpw   $0x0,0x4(%edi)
  4035df:	0f 85 12 fe ff ff    	jne    4033f7 <___mingw_dirname+0x167>
  4035e5:	89 5c 24 04          	mov    %ebx,0x4(%esp)
  4035e9:	c7 04 24 02 00 00 00 	movl   $0x2,(%esp)
  4035f0:	e8 af 08 00 00       	call   403ea4 <_setlocale>
  4035f5:	89 1c 24             	mov    %ebx,(%esp)
  4035f8:	e8 63 eb ff ff       	call   402160 <___mingw_aligned_free>
  4035fd:	8b 75 08             	mov    0x8(%ebp),%esi
  403600:	e9 f1 fe ff ff       	jmp    4034f6 <___mingw_dirname+0x266>
  403605:	66 39 47 02          	cmp    %ax,0x2(%edi)
  403609:	0f 85 51 ff ff ff    	jne    403560 <___mingw_dirname+0x2d0>
  40360f:	0f b7 01             	movzwl (%ecx),%eax
  403612:	e9 4b ff ff ff       	jmp    403562 <___mingw_dirname+0x2d2>
  403617:	8d b4 26 00 00 00 00 	lea    0x0(%esi,%eiz,1),%esi
  40361e:	66 90                	xchg   %ax,%ax
  403620:	89 f2                	mov    %esi,%edx
  403622:	eb 82                	jmp    4035a6 <___mingw_dirname+0x316>
  403624:	8d 74 26 00          	lea    0x0(%esi,%eiz,1),%esi
  403628:	8b 5d e4             	mov    -0x1c(%ebp),%ebx
  40362b:	8b 45 d8             	mov    -0x28(%ebp),%eax
  40362e:	31 f6                	xor    %esi,%esi
  403630:	66 89 31             	mov    %si,(%ecx)
  403633:	89 44 24 08          	mov    %eax,0x8(%esp)
  403637:	89 7c 24 04          	mov    %edi,0x4(%esp)
  40363b:	8b 45 08             	mov    0x8(%ebp),%eax
  40363e:	89 04 24             	mov    %eax,(%esp)
  403641:	e8 26 08 00 00       	call   403e6c <_wcstombs>
  403646:	8b 75 08             	mov    0x8(%ebp),%esi
  403649:	83 f8 ff             	cmp    $0xffffffff,%eax
  40364c:	0f 84 8c fe ff ff    	je     4034de <___mingw_dirname+0x24e>
  403652:	c6 04 06 00          	movb   $0x0,(%esi,%eax,1)
  403656:	e9 83 fe ff ff       	jmp    4034de <___mingw_dirname+0x24e>
  40365b:	0f 85 bc fe ff ff    	jne    40351d <___mingw_dirname+0x28d>
  403661:	0f b7 75 e2          	movzwl -0x1e(%ebp),%esi
  403665:	66 83 fe 2f          	cmp    $0x2f,%si
  403669:	74 0a                	je     403675 <___mingw_dirname+0x3e5>
  40366b:	66 83 fe 5c          	cmp    $0x5c,%si
  40366f:	0f 85 a8 fe ff ff    	jne    40351d <___mingw_dirname+0x28d>
  403675:	0f b7 75 e2          	movzwl -0x1e(%ebp),%esi
  403679:	66 39 71 02          	cmp    %si,0x2(%ecx)
  40367d:	0f 85 9a fe ff ff    	jne    40351d <___mingw_dirname+0x28d>
  403683:	0f b7 51 04          	movzwl 0x4(%ecx),%edx
  403687:	66 83 fa 2f          	cmp    $0x2f,%dx
  40368b:	0f 84 8c fe ff ff    	je     40351d <___mingw_dirname+0x28d>
  403691:	66 83 fa 5c          	cmp    $0x5c,%dx
  403695:	0f 84 82 fe ff ff    	je     40351d <___mingw_dirname+0x28d>
  40369b:	89 c1                	mov    %eax,%ecx
  40369d:	e9 7b fe ff ff       	jmp    40351d <___mingw_dirname+0x28d>
  4036a2:	90                   	nop
  4036a3:	90                   	nop
  4036a4:	90                   	nop
  4036a5:	90                   	nop
  4036a6:	90                   	nop
  4036a7:	90                   	nop
  4036a8:	90                   	nop
  4036a9:	90                   	nop
  4036aa:	90                   	nop
  4036ab:	90                   	nop
  4036ac:	90                   	nop
  4036ad:	90                   	nop
  4036ae:	90                   	nop
  4036af:	90                   	nop

004036b0 <.text>:
  4036b0:	56                   	push   %esi
  4036b1:	53                   	push   %ebx
  4036b2:	89 d3                	mov    %edx,%ebx
  4036b4:	81 ec 54 01 00 00    	sub    $0x154,%esp
  4036ba:	8d 54 24 10          	lea    0x10(%esp),%edx
  4036be:	89 04 24             	mov    %eax,(%esp)
  4036c1:	89 54 24 04          	mov    %edx,0x4(%esp)
  4036c5:	e8 e2 08 00 00       	call   403fac <_FindFirstFileA@8>
  4036ca:	83 ec 08             	sub    $0x8,%esp
  4036cd:	89 c6                	mov    %eax,%esi
  4036cf:	83 f8 ff             	cmp    $0xffffffff,%eax
  4036d2:	74 74                	je     403748 <.text+0x98>
  4036d4:	31 c0                	xor    %eax,%eax
  4036d6:	8d 4b 0c             	lea    0xc(%ebx),%ecx
  4036d9:	66 89 43 06          	mov    %ax,0x6(%ebx)
  4036dd:	0f b6 44 24 3c       	movzbl 0x3c(%esp),%eax
  4036e2:	88 43 0c             	mov    %al,0xc(%ebx)
  4036e5:	84 c0                	test   %al,%al
  4036e7:	74 27                	je     403710 <.text+0x60>
  4036e9:	31 c0                	xor    %eax,%eax
  4036eb:	eb 07                	jmp    4036f4 <.text+0x44>
  4036ed:	8d 76 00             	lea    0x0(%esi),%esi
  4036f0:	0f b7 43 06          	movzwl 0x6(%ebx),%eax
  4036f4:	83 c0 01             	add    $0x1,%eax
  4036f7:	66 89 43 06          	mov    %ax,0x6(%ebx)
  4036fb:	66 3d 04 01          	cmp    $0x104,%ax
  4036ff:	0f b7 c0             	movzwl %ax,%eax
  403702:	0f b6 44 04 3c       	movzbl 0x3c(%esp,%eax,1),%eax
  403707:	83 d1 00             	adc    $0x0,%ecx
  40370a:	88 01                	mov    %al,(%ecx)
  40370c:	84 c0                	test   %al,%al
  40370e:	75 e0                	jne    4036f0 <.text+0x40>
  403710:	8b 44 24 10          	mov    0x10(%esp),%eax
  403714:	24 58                	and    $0x58,%al
  403716:	83 f8 10             	cmp    $0x10,%eax
  403719:	77 15                	ja     403730 <.text+0x80>
  40371b:	89 43 08             	mov    %eax,0x8(%ebx)
  40371e:	81 c4 54 01 00 00    	add    $0x154,%esp
  403724:	89 f0                	mov    %esi,%eax
  403726:	5b                   	pop    %ebx
  403727:	5e                   	pop    %esi
  403728:	c3                   	ret    
  403729:	8d b4 26 00 00 00 00 	lea    0x0(%esi,%eiz,1),%esi
  403730:	c7 43 08 18 00 00 00 	movl   $0x18,0x8(%ebx)
  403737:	81 c4 54 01 00 00    	add    $0x154,%esp
  40373d:	89 f0                	mov    %esi,%eax
  40373f:	5b                   	pop    %ebx
  403740:	5e                   	pop    %esi
  403741:	c3                   	ret    
  403742:	8d b6 00 00 00 00    	lea    0x0(%esi),%esi
  403748:	e8 3f 08 00 00       	call   403f8c <_GetLastError@0>
  40374d:	89 c3                	mov    %eax,%ebx
  40374f:	e8 c8 07 00 00       	call   403f1c <__errno>
  403754:	89 18                	mov    %ebx,(%eax)
  403756:	83 fb 03             	cmp    $0x3,%ebx
  403759:	74 24                	je     40377f <.text+0xcf>
  40375b:	e8 bc 07 00 00       	call   403f1c <__errno>
  403760:	81 38 0b 01 00 00    	cmpl   $0x10b,(%eax)
  403766:	74 24                	je     40378c <.text+0xdc>
  403768:	e8 af 07 00 00       	call   403f1c <__errno>
  40376d:	83 38 02             	cmpl   $0x2,(%eax)
  403770:	74 ac                	je     40371e <.text+0x6e>
  403772:	e8 a5 07 00 00       	call   403f1c <__errno>
  403777:	c7 00 16 00 00 00    	movl   $0x16,(%eax)
  40377d:	eb 9f                	jmp    40371e <.text+0x6e>
  40377f:	e8 98 07 00 00       	call   403f1c <__errno>
  403784:	c7 00 02 00 00 00    	movl   $0x2,(%eax)
  40378a:	eb 92                	jmp    40371e <.text+0x6e>
  40378c:	e8 8b 07 00 00       	call   403f1c <__errno>
  403791:	c7 00 14 00 00 00    	movl   $0x14,(%eax)
  403797:	eb 85                	jmp    40371e <.text+0x6e>
  403799:	8d b4 26 00 00 00 00 	lea    0x0(%esi,%eiz,1),%esi
  4037a0:	56                   	push   %esi
  4037a1:	53                   	push   %ebx
  4037a2:	89 d3                	mov    %edx,%ebx
  4037a4:	81 ec 54 01 00 00    	sub    $0x154,%esp
  4037aa:	8d 54 24 10          	lea    0x10(%esp),%edx
  4037ae:	89 04 24             	mov    %eax,(%esp)
  4037b1:	89 54 24 04          	mov    %edx,0x4(%esp)
  4037b5:	e8 ea 07 00 00       	call   403fa4 <_FindNextFileA@8>
  4037ba:	83 ec 08             	sub    $0x8,%esp
  4037bd:	89 c6                	mov    %eax,%esi
  4037bf:	85 c0                	test   %eax,%eax
  4037c1:	74 75                	je     403838 <.text+0x188>
  4037c3:	31 c0                	xor    %eax,%eax
  4037c5:	8d 4b 0c             	lea    0xc(%ebx),%ecx
  4037c8:	66 89 43 06          	mov    %ax,0x6(%ebx)
  4037cc:	0f b6 44 24 3c       	movzbl 0x3c(%esp),%eax
  4037d1:	88 43 0c             	mov    %al,0xc(%ebx)
  4037d4:	84 c0                	test   %al,%al
  4037d6:	74 28                	je     403800 <.text+0x150>
  4037d8:	31 c0                	xor    %eax,%eax
  4037da:	eb 08                	jmp    4037e4 <.text+0x134>
  4037dc:	8d 74 26 00          	lea    0x0(%esi,%eiz,1),%esi
  4037e0:	0f b7 43 06          	movzwl 0x6(%ebx),%eax
  4037e4:	83 c0 01             	add    $0x1,%eax
  4037e7:	66 89 43 06          	mov    %ax,0x6(%ebx)
  4037eb:	66 3d 04 01          	cmp    $0x104,%ax
  4037ef:	0f b7 c0             	movzwl %ax,%eax
  4037f2:	0f b6 44 04 3c       	movzbl 0x3c(%esp,%eax,1),%eax
  4037f7:	83 d1 00             	adc    $0x0,%ecx
  4037fa:	88 01                	mov    %al,(%ecx)
  4037fc:	84 c0                	test   %al,%al
  4037fe:	75 e0                	jne    4037e0 <.text+0x130>
  403800:	8b 44 24 10          	mov    0x10(%esp),%eax
  403804:	24 58                	and    $0x58,%al
  403806:	83 f8 10             	cmp    $0x10,%eax
  403809:	77 15                	ja     403820 <.text+0x170>
  40380b:	89 43 08             	mov    %eax,0x8(%ebx)
  40380e:	81 c4 54 01 00 00    	add    $0x154,%esp
  403814:	89 f0                	mov    %esi,%eax
  403816:	5b                   	pop    %ebx
  403817:	5e                   	pop    %esi
  403818:	c3                   	ret    
  403819:	8d b4 26 00 00 00 00 	lea    0x0(%esi,%eiz,1),%esi
  403820:	c7 43 08 18 00 00 00 	movl   $0x18,0x8(%ebx)
  403827:	81 c4 54 01 00 00    	add    $0x154,%esp
  40382d:	89 f0                	mov    %esi,%eax
  40382f:	5b                   	pop    %ebx
  403830:	5e                   	pop    %esi
  403831:	c3                   	ret    
  403832:	8d b6 00 00 00 00    	lea    0x0(%esi),%esi
  403838:	e8 4f 07 00 00       	call   403f8c <_GetLastError@0>
  40383d:	83 f8 12             	cmp    $0x12,%eax
  403840:	74 cc                	je     40380e <.text+0x15e>
  403842:	e8 d5 06 00 00       	call   403f1c <__errno>
  403847:	c7 00 02 00 00 00    	movl   $0x2,(%eax)
  40384d:	81 c4 54 01 00 00    	add    $0x154,%esp
  403853:	89 f0                	mov    %esi,%eax
  403855:	5b                   	pop    %ebx
  403856:	5e                   	pop    %esi
  403857:	c3                   	ret    
  403858:	8d b4 26 00 00 00 00 	lea    0x0(%esi,%eiz,1),%esi
  40385f:	90                   	nop

00403860 <___mingw_opendir>:
  403860:	55                   	push   %ebp
  403861:	57                   	push   %edi
  403862:	56                   	push   %esi
  403863:	53                   	push   %ebx
  403864:	81 ec 2c 01 00 00    	sub    $0x12c,%esp
  40386a:	8b 84 24 40 01 00 00 	mov    0x140(%esp),%eax
  403871:	85 c0                	test   %eax,%eax
  403873:	0f 84 af 01 00 00    	je     403a28 <___mingw_opendir+0x1c8>
  403879:	80 38 00             	cmpb   $0x0,(%eax)
  40387c:	0f 84 86 01 00 00    	je     403a08 <___mingw_opendir+0x1a8>
  403882:	8d 74 24 1c          	lea    0x1c(%esp),%esi
  403886:	c7 44 24 08 04 01 00 	movl   $0x104,0x8(%esp)
  40388d:	00 
  40388e:	89 44 24 04          	mov    %eax,0x4(%esp)
  403892:	89 34 24             	mov    %esi,(%esp)
  403895:	e8 7a 06 00 00       	call   403f14 <__fullpath>
  40389a:	80 7c 24 1c 00       	cmpb   $0x0,0x1c(%esp)
  40389f:	89 f2                	mov    %esi,%edx
  4038a1:	74 4d                	je     4038f0 <___mingw_opendir+0x90>
  4038a3:	8b 0a                	mov    (%edx),%ecx
  4038a5:	83 c2 04             	add    $0x4,%edx
  4038a8:	8d 81 ff fe fe fe    	lea    -0x1010101(%ecx),%eax
  4038ae:	f7 d1                	not    %ecx
  4038b0:	21 c8                	and    %ecx,%eax
  4038b2:	25 80 80 80 80       	and    $0x80808080,%eax
  4038b7:	74 ea                	je     4038a3 <___mingw_opendir+0x43>
  4038b9:	a9 80 80 00 00       	test   $0x8080,%eax
  4038be:	0f 84 34 01 00 00    	je     4039f8 <___mingw_opendir+0x198>
  4038c4:	89 c3                	mov    %eax,%ebx
  4038c6:	00 c3                	add    %al,%bl
  4038c8:	83 da 03             	sbb    $0x3,%edx
  4038cb:	29 f2                	sub    %esi,%edx
  4038cd:	0f b6 4c 14 1b       	movzbl 0x1b(%esp,%edx,1),%ecx
  4038d2:	8d 04 16             	lea    (%esi,%edx,1),%eax
  4038d5:	80 f9 2f             	cmp    $0x2f,%cl
  4038d8:	74 40                	je     40391a <___mingw_opendir+0xba>
  4038da:	80 f9 5c             	cmp    $0x5c,%cl
  4038dd:	74 3b                	je     40391a <___mingw_opendir+0xba>
  4038df:	b9 5c 00 00 00       	mov    $0x5c,%ecx
  4038e4:	66 89 08             	mov    %cx,(%eax)
  4038e7:	8d 44 16 01          	lea    0x1(%esi,%edx,1),%eax
  4038eb:	eb 2d                	jmp    40391a <___mingw_opendir+0xba>
  4038ed:	8d 76 00             	lea    0x0(%esi),%esi
  4038f0:	8b 0a                	mov    (%edx),%ecx
  4038f2:	83 c2 04             	add    $0x4,%edx
  4038f5:	8d 81 ff fe fe fe    	lea    -0x1010101(%ecx),%eax
  4038fb:	f7 d1                	not    %ecx
  4038fd:	21 c8                	and    %ecx,%eax
  4038ff:	25 80 80 80 80       	and    $0x80808080,%eax
  403904:	74 ea                	je     4038f0 <___mingw_opendir+0x90>
  403906:	a9 80 80 00 00       	test   $0x8080,%eax
  40390b:	0f 84 d7 00 00 00    	je     4039e8 <___mingw_opendir+0x188>
  403911:	89 c3                	mov    %eax,%ebx
  403913:	00 c3                	add    %al,%bl
  403915:	89 d0                	mov    %edx,%eax
  403917:	83 d8 03             	sbb    $0x3,%eax
  40391a:	ba 2a 00 00 00       	mov    $0x2a,%edx
  40391f:	89 f3                	mov    %esi,%ebx
  403921:	66 89 10             	mov    %dx,(%eax)
  403924:	8b 13                	mov    (%ebx),%edx
  403926:	83 c3 04             	add    $0x4,%ebx
  403929:	8d 82 ff fe fe fe    	lea    -0x1010101(%edx),%eax
  40392f:	f7 d2                	not    %edx
  403931:	21 d0                	and    %edx,%eax
  403933:	25 80 80 80 80       	and    $0x80808080,%eax
  403938:	74 ea                	je     403924 <___mingw_opendir+0xc4>
  40393a:	a9 80 80 00 00       	test   $0x8080,%eax
  40393f:	75 06                	jne    403947 <___mingw_opendir+0xe7>
  403941:	c1 e8 10             	shr    $0x10,%eax
  403944:	83 c3 02             	add    $0x2,%ebx
  403947:	89 c1                	mov    %eax,%ecx
  403949:	00 c1                	add    %al,%cl
  40394b:	83 db 03             	sbb    $0x3,%ebx
  40394e:	29 f3                	sub    %esi,%ebx
  403950:	8d 83 1c 01 00 00    	lea    0x11c(%ebx),%eax
  403956:	89 04 24             	mov    %eax,(%esp)
  403959:	e8 7e 05 00 00       	call   403edc <_malloc>
  40395e:	89 c5                	mov    %eax,%ebp
  403960:	85 c0                	test   %eax,%eax
  403962:	0f 84 e7 00 00 00    	je     403a4f <___mingw_opendir+0x1ef>
  403968:	8d 4b 01             	lea    0x1(%ebx),%ecx
  40396b:	8d 80 18 01 00 00    	lea    0x118(%eax),%eax
  403971:	83 f9 04             	cmp    $0x4,%ecx
  403974:	72 52                	jb     4039c8 <___mingw_opendir+0x168>
  403976:	8b 54 0c 18          	mov    0x18(%esp,%ecx,1),%edx
  40397a:	c1 eb 02             	shr    $0x2,%ebx
  40397d:	89 c7                	mov    %eax,%edi
  40397f:	89 54 08 fc          	mov    %edx,-0x4(%eax,%ecx,1)
  403983:	89 d9                	mov    %ebx,%ecx
  403985:	f3 a5                	rep movsl %ds:(%esi),%es:(%edi)
  403987:	89 ea                	mov    %ebp,%edx
  403989:	e8 22 fd ff ff       	call   4036b0 <.text>
  40398e:	89 85 10 01 00 00    	mov    %eax,0x110(%ebp)
  403994:	83 f8 ff             	cmp    $0xffffffff,%eax
  403997:	0f 84 a3 00 00 00    	je     403a40 <___mingw_opendir+0x1e0>
  40399d:	b8 10 01 00 00       	mov    $0x110,%eax
  4039a2:	c7 45 00 00 00 00 00 	movl   $0x0,0x0(%ebp)
  4039a9:	c7 85 14 01 00 00 00 	movl   $0x0,0x114(%ebp)
  4039b0:	00 00 00 
  4039b3:	66 89 45 04          	mov    %ax,0x4(%ebp)
  4039b7:	81 c4 2c 01 00 00    	add    $0x12c,%esp
  4039bd:	89 e8                	mov    %ebp,%eax
  4039bf:	5b                   	pop    %ebx
  4039c0:	5e                   	pop    %esi
  4039c1:	5f                   	pop    %edi
  4039c2:	5d                   	pop    %ebp
  4039c3:	c3                   	ret    
  4039c4:	8d 74 26 00          	lea    0x0(%esi,%eiz,1),%esi
  4039c8:	85 c9                	test   %ecx,%ecx
  4039ca:	74 bb                	je     403987 <___mingw_opendir+0x127>
  4039cc:	0f b6 16             	movzbl (%esi),%edx
  4039cf:	88 10                	mov    %dl,(%eax)
  4039d1:	f6 c1 02             	test   $0x2,%cl
  4039d4:	74 b1                	je     403987 <___mingw_opendir+0x127>
  4039d6:	0f b7 54 0e fe       	movzwl -0x2(%esi,%ecx,1),%edx
  4039db:	66 89 54 08 fe       	mov    %dx,-0x2(%eax,%ecx,1)
  4039e0:	eb a5                	jmp    403987 <___mingw_opendir+0x127>
  4039e2:	8d b6 00 00 00 00    	lea    0x0(%esi),%esi
  4039e8:	c1 e8 10             	shr    $0x10,%eax
  4039eb:	83 c2 02             	add    $0x2,%edx
  4039ee:	e9 1e ff ff ff       	jmp    403911 <___mingw_opendir+0xb1>
  4039f3:	8d 74 26 00          	lea    0x0(%esi,%eiz,1),%esi
  4039f7:	90                   	nop
  4039f8:	c1 e8 10             	shr    $0x10,%eax
  4039fb:	83 c2 02             	add    $0x2,%edx
  4039fe:	e9 c1 fe ff ff       	jmp    4038c4 <___mingw_opendir+0x64>
  403a03:	8d 74 26 00          	lea    0x0(%esi,%eiz,1),%esi
  403a07:	90                   	nop
  403a08:	e8 0f 05 00 00       	call   403f1c <__errno>
  403a0d:	31 ed                	xor    %ebp,%ebp
  403a0f:	c7 00 02 00 00 00    	movl   $0x2,(%eax)
  403a15:	81 c4 2c 01 00 00    	add    $0x12c,%esp
  403a1b:	89 e8                	mov    %ebp,%eax
  403a1d:	5b                   	pop    %ebx
  403a1e:	5e                   	pop    %esi
  403a1f:	5f                   	pop    %edi
  403a20:	5d                   	pop    %ebp
  403a21:	c3                   	ret    
  403a22:	8d b6 00 00 00 00    	lea    0x0(%esi),%esi
  403a28:	e8 ef 04 00 00       	call   403f1c <__errno>
  403a2d:	31 ed                	xor    %ebp,%ebp
  403a2f:	c7 00 16 00 00 00    	movl   $0x16,(%eax)
  403a35:	eb 80                	jmp    4039b7 <___mingw_opendir+0x157>
  403a37:	8d b4 26 00 00 00 00 	lea    0x0(%esi,%eiz,1),%esi
  403a3e:	66 90                	xchg   %ax,%ax
  403a40:	89 2c 24             	mov    %ebp,(%esp)
  403a43:	31 ed                	xor    %ebp,%ebp
  403a45:	e8 16 e7 ff ff       	call   402160 <___mingw_aligned_free>
  403a4a:	e9 68 ff ff ff       	jmp    4039b7 <___mingw_opendir+0x157>
  403a4f:	e8 c8 04 00 00       	call   403f1c <__errno>
  403a54:	c7 00 0c 00 00 00    	movl   $0xc,(%eax)
  403a5a:	e9 58 ff ff ff       	jmp    4039b7 <___mingw_opendir+0x157>
  403a5f:	90                   	nop

00403a60 <___mingw_readdir>:
  403a60:	53                   	push   %ebx
  403a61:	83 ec 08             	sub    $0x8,%esp
  403a64:	8b 44 24 10          	mov    0x10(%esp),%eax
  403a68:	85 c0                	test   %eax,%eax
  403a6a:	74 34                	je     403aa0 <___mingw_readdir+0x40>
  403a6c:	8b 90 14 01 00 00    	mov    0x114(%eax),%edx
  403a72:	89 c3                	mov    %eax,%ebx
  403a74:	8d 4a 01             	lea    0x1(%edx),%ecx
  403a77:	89 88 14 01 00 00    	mov    %ecx,0x114(%eax)
  403a7d:	85 d2                	test   %edx,%edx
  403a7f:	7e 16                	jle    403a97 <___mingw_readdir+0x37>
  403a81:	8b 80 10 01 00 00    	mov    0x110(%eax),%eax
  403a87:	89 da                	mov    %ebx,%edx
  403a89:	e8 12 fd ff ff       	call   4037a0 <.text+0xf0>
  403a8e:	83 f8 01             	cmp    $0x1,%eax
  403a91:	19 c0                	sbb    %eax,%eax
  403a93:	f7 d0                	not    %eax
  403a95:	21 c3                	and    %eax,%ebx
  403a97:	83 c4 08             	add    $0x8,%esp
  403a9a:	89 d8                	mov    %ebx,%eax
  403a9c:	5b                   	pop    %ebx
  403a9d:	c3                   	ret    
  403a9e:	66 90                	xchg   %ax,%ax
  403aa0:	e8 77 04 00 00       	call   403f1c <__errno>
  403aa5:	31 db                	xor    %ebx,%ebx
  403aa7:	c7 00 09 00 00 00    	movl   $0x9,(%eax)
  403aad:	eb e8                	jmp    403a97 <___mingw_readdir+0x37>
  403aaf:	90                   	nop

00403ab0 <___mingw_closedir>:
  403ab0:	53                   	push   %ebx
  403ab1:	83 ec 18             	sub    $0x18,%esp
  403ab4:	8b 5c 24 20          	mov    0x20(%esp),%ebx
  403ab8:	85 db                	test   %ebx,%ebx
  403aba:	74 24                	je     403ae0 <___mingw_closedir+0x30>
  403abc:	8b 83 10 01 00 00    	mov    0x110(%ebx),%eax
  403ac2:	89 04 24             	mov    %eax,(%esp)
  403ac5:	e8 ea 04 00 00       	call   403fb4 <_FindClose@4>
  403aca:	83 ec 04             	sub    $0x4,%esp
  403acd:	85 c0                	test   %eax,%eax
  403acf:	74 0f                	je     403ae0 <___mingw_closedir+0x30>
  403ad1:	89 1c 24             	mov    %ebx,(%esp)
  403ad4:	e8 87 e6 ff ff       	call   402160 <___mingw_aligned_free>
  403ad9:	31 c0                	xor    %eax,%eax
  403adb:	83 c4 18             	add    $0x18,%esp
  403ade:	5b                   	pop    %ebx
  403adf:	c3                   	ret    
  403ae0:	e8 37 04 00 00       	call   403f1c <__errno>
  403ae5:	c7 00 09 00 00 00    	movl   $0x9,(%eax)
  403aeb:	b8 ff ff ff ff       	mov    $0xffffffff,%eax
  403af0:	eb e9                	jmp    403adb <___mingw_closedir+0x2b>
  403af2:	8d b4 26 00 00 00 00 	lea    0x0(%esi,%eiz,1),%esi
  403af9:	8d b4 26 00 00 00 00 	lea    0x0(%esi,%eiz,1),%esi

00403b00 <___mingw_rewinddir>:
  403b00:	53                   	push   %ebx
  403b01:	83 ec 18             	sub    $0x18,%esp
  403b04:	8b 5c 24 20          	mov    0x20(%esp),%ebx
  403b08:	85 db                	test   %ebx,%ebx
  403b0a:	74 15                	je     403b21 <___mingw_rewinddir+0x21>
  403b0c:	8b 83 10 01 00 00    	mov    0x110(%ebx),%eax
  403b12:	89 04 24             	mov    %eax,(%esp)
  403b15:	e8 9a 04 00 00       	call   403fb4 <_FindClose@4>
  403b1a:	83 ec 04             	sub    $0x4,%esp
  403b1d:	85 c0                	test   %eax,%eax
  403b1f:	75 17                	jne    403b38 <___mingw_rewinddir+0x38>
  403b21:	e8 f6 03 00 00       	call   403f1c <__errno>
  403b26:	c7 00 09 00 00 00    	movl   $0x9,(%eax)
  403b2c:	83 c4 18             	add    $0x18,%esp
  403b2f:	5b                   	pop    %ebx
  403b30:	c3                   	ret    
  403b31:	8d b4 26 00 00 00 00 	lea    0x0(%esi,%eiz,1),%esi
  403b38:	8d 83 18 01 00 00    	lea    0x118(%ebx),%eax
  403b3e:	89 da                	mov    %ebx,%edx
  403b40:	e8 6b fb ff ff       	call   4036b0 <.text>
  403b45:	89 83 10 01 00 00    	mov    %eax,0x110(%ebx)
  403b4b:	83 f8 ff             	cmp    $0xffffffff,%eax
  403b4e:	74 dc                	je     403b2c <___mingw_rewinddir+0x2c>
  403b50:	c7 83 14 01 00 00 00 	movl   $0x0,0x114(%ebx)
  403b57:	00 00 00 
  403b5a:	83 c4 18             	add    $0x18,%esp
  403b5d:	5b                   	pop    %ebx
  403b5e:	c3                   	ret    
  403b5f:	90                   	nop

00403b60 <___mingw_telldir>:
  403b60:	83 ec 0c             	sub    $0xc,%esp
  403b63:	8b 44 24 10          	mov    0x10(%esp),%eax
  403b67:	85 c0                	test   %eax,%eax
  403b69:	74 0a                	je     403b75 <___mingw_telldir+0x15>
  403b6b:	8b 80 14 01 00 00    	mov    0x114(%eax),%eax
  403b71:	83 c4 0c             	add    $0xc,%esp
  403b74:	c3                   	ret    
  403b75:	e8 a2 03 00 00       	call   403f1c <__errno>
  403b7a:	c7 00 09 00 00 00    	movl   $0x9,(%eax)
  403b80:	b8 ff ff ff ff       	mov    $0xffffffff,%eax
  403b85:	eb ea                	jmp    403b71 <___mingw_telldir+0x11>
  403b87:	8d b4 26 00 00 00 00 	lea    0x0(%esi,%eiz,1),%esi
  403b8e:	66 90                	xchg   %ax,%ax

00403b90 <___mingw_seekdir>:
  403b90:	56                   	push   %esi
  403b91:	53                   	push   %ebx
  403b92:	83 ec 14             	sub    $0x14,%esp
  403b95:	8b 74 24 24          	mov    0x24(%esp),%esi
  403b99:	8b 5c 24 20          	mov    0x20(%esp),%ebx
  403b9d:	85 f6                	test   %esi,%esi
  403b9f:	78 4f                	js     403bf0 <___mingw_seekdir+0x60>
  403ba1:	89 1c 24             	mov    %ebx,(%esp)
  403ba4:	e8 57 ff ff ff       	call   403b00 <___mingw_rewinddir>
  403ba9:	85 f6                	test   %esi,%esi
  403bab:	74 37                	je     403be4 <___mingw_seekdir+0x54>
  403bad:	83 bb 10 01 00 00 ff 	cmpl   $0xffffffff,0x110(%ebx)
  403bb4:	75 1b                	jne    403bd1 <___mingw_seekdir+0x41>
  403bb6:	eb 2c                	jmp    403be4 <___mingw_seekdir+0x54>
  403bb8:	8d b4 26 00 00 00 00 	lea    0x0(%esi,%eiz,1),%esi
  403bbf:	90                   	nop
  403bc0:	8b 83 10 01 00 00    	mov    0x110(%ebx),%eax
  403bc6:	89 da                	mov    %ebx,%edx
  403bc8:	e8 d3 fb ff ff       	call   4037a0 <.text+0xf0>
  403bcd:	85 c0                	test   %eax,%eax
  403bcf:	74 13                	je     403be4 <___mingw_seekdir+0x54>
  403bd1:	8b 83 14 01 00 00    	mov    0x114(%ebx),%eax
  403bd7:	83 c0 01             	add    $0x1,%eax
  403bda:	89 83 14 01 00 00    	mov    %eax,0x114(%ebx)
  403be0:	39 f0                	cmp    %esi,%eax
  403be2:	7c dc                	jl     403bc0 <___mingw_seekdir+0x30>
  403be4:	83 c4 14             	add    $0x14,%esp
  403be7:	5b                   	pop    %ebx
  403be8:	5e                   	pop    %esi
  403be9:	c3                   	ret    
  403bea:	8d b6 00 00 00 00    	lea    0x0(%esi),%esi
  403bf0:	e8 27 03 00 00       	call   403f1c <__errno>
  403bf5:	c7 00 16 00 00 00    	movl   $0x16,(%eax)
  403bfb:	83 c4 14             	add    $0x14,%esp
  403bfe:	5b                   	pop    %ebx
  403bff:	5e                   	pop    %esi
  403c00:	c3                   	ret    
  403c01:	90                   	nop
  403c02:	90                   	nop
  403c03:	90                   	nop
  403c04:	90                   	nop
  403c05:	90                   	nop
  403c06:	90                   	nop
  403c07:	90                   	nop
  403c08:	90                   	nop
  403c09:	90                   	nop
  403c0a:	90                   	nop
  403c0b:	90                   	nop
  403c0c:	90                   	nop
  403c0d:	90                   	nop
  403c0e:	90                   	nop
  403c0f:	90                   	nop

00403c10 <___mingw_memalign_base>:
  403c10:	55                   	push   %ebp
  403c11:	57                   	push   %edi
  403c12:	56                   	push   %esi
  403c13:	53                   	push   %ebx
  403c14:	83 ec 08             	sub    $0x8,%esp
  403c17:	8b 44 24 1c          	mov    0x1c(%esp),%eax
  403c1b:	85 c0                	test   %eax,%eax
  403c1d:	0f 84 83 00 00 00    	je     403ca6 <___mingw_memalign_base+0x96>
  403c23:	8b 35 6c 80 40 00    	mov    0x40806c,%esi
  403c29:	85 f6                	test   %esi,%esi
  403c2b:	74 79                	je     403ca6 <___mingw_memalign_base+0x96>
  403c2d:	8d 56 08             	lea    0x8(%esi),%edx
  403c30:	39 c2                	cmp    %eax,%edx
  403c32:	77 72                	ja     403ca6 <___mingw_memalign_base+0x96>
  403c34:	8d 50 fc             	lea    -0x4(%eax),%edx
  403c37:	8b 7c 24 20          	mov    0x20(%esp),%edi
  403c3b:	83 e2 fc             	and    $0xfffffffc,%edx
  403c3e:	8b 12                	mov    (%edx),%edx
  403c40:	89 d3                	mov    %edx,%ebx
  403c42:	89 d1                	mov    %edx,%ecx
  403c44:	83 e3 03             	and    $0x3,%ebx
  403c47:	83 e1 fc             	and    $0xfffffffc,%ecx
  403c4a:	89 5f 04             	mov    %ebx,0x4(%edi)
  403c4d:	89 0f                	mov    %ecx,(%edi)
  403c4f:	39 ce                	cmp    %ecx,%esi
  403c51:	77 53                	ja     403ca6 <___mingw_memalign_base+0x96>
  403c53:	8d 70 f8             	lea    -0x8(%eax),%esi
  403c56:	39 f1                	cmp    %esi,%ecx
  403c58:	77 4c                	ja     403ca6 <___mingw_memalign_base+0x96>
  403c5a:	89 4c 24 04          	mov    %ecx,0x4(%esp)
  403c5e:	f6 c2 01             	test   $0x1,%dl
  403c61:	74 4d                	je     403cb0 <___mingw_memalign_base+0xa0>
  403c63:	8b 39                	mov    (%ecx),%edi
  403c65:	89 fd                	mov    %edi,%ebp
  403c67:	8d 77 07             	lea    0x7(%edi),%esi
  403c6a:	f7 dd                	neg    %ebp
  403c6c:	89 2c 24             	mov    %ebp,(%esp)
  403c6f:	8b 6c 24 20          	mov    0x20(%esp),%ebp
  403c73:	89 7d 08             	mov    %edi,0x8(%ebp)
  403c76:	83 e2 02             	and    $0x2,%edx
  403c79:	74 0b                	je     403c86 <___mingw_memalign_base+0x76>
  403c7b:	8d 53 01             	lea    0x1(%ebx),%edx
  403c7e:	c1 ea 02             	shr    $0x2,%edx
  403c81:	8b 14 91             	mov    (%ecx,%edx,4),%edx
  403c84:	01 d1                	add    %edx,%ecx
  403c86:	8b 6c 24 20          	mov    0x20(%esp),%ebp
  403c8a:	89 55 0c             	mov    %edx,0xc(%ebp)
  403c8d:	83 fb 03             	cmp    $0x3,%ebx
  403c90:	75 03                	jne    403c95 <___mingw_memalign_base+0x85>
  403c92:	8d 77 0b             	lea    0xb(%edi),%esi
  403c95:	8b 2c 24             	mov    (%esp),%ebp
  403c98:	01 f1                	add    %esi,%ecx
  403c9a:	21 cd                	and    %ecx,%ebp
  403c9c:	29 d5                	sub    %edx,%ebp
  403c9e:	39 e8                	cmp    %ebp,%eax
  403ca0:	75 04                	jne    403ca6 <___mingw_memalign_base+0x96>
  403ca2:	8b 44 24 04          	mov    0x4(%esp),%eax
  403ca6:	83 c4 08             	add    $0x8,%esp
  403ca9:	5b                   	pop    %ebx
  403caa:	5e                   	pop    %esi
  403cab:	5f                   	pop    %edi
  403cac:	5d                   	pop    %ebp
  403cad:	c3                   	ret    
  403cae:	66 90                	xchg   %ax,%ax
  403cb0:	c7 04 24 f8 ff ff ff 	movl   $0xfffffff8,(%esp)
  403cb7:	be 0f 00 00 00       	mov    $0xf,%esi
  403cbc:	bf 08 00 00 00       	mov    $0x8,%edi
  403cc1:	eb ac                	jmp    403c6f <___mingw_memalign_base+0x5f>
  403cc3:	90                   	nop
  403cc4:	90                   	nop
  403cc5:	90                   	nop
  403cc6:	90                   	nop
  403cc7:	90                   	nop
  403cc8:	90                   	nop
  403cc9:	90                   	nop
  403cca:	90                   	nop
  403ccb:	90                   	nop
  403ccc:	90                   	nop
  403ccd:	90                   	nop
  403cce:	90                   	nop
  403ccf:	90                   	nop

00403cd0 <___mingw_realloc>:
  403cd0:	57                   	push   %edi
  403cd1:	56                   	push   %esi
  403cd2:	53                   	push   %ebx
  403cd3:	83 ec 20             	sub    $0x20,%esp
  403cd6:	8b 5c 24 30          	mov    0x30(%esp),%ebx
  403cda:	8b 74 24 34          	mov    0x34(%esp),%esi
  403cde:	85 db                	test   %ebx,%ebx
  403ce0:	74 3a                	je     403d1c <___mingw_realloc+0x4c>
  403ce2:	8d 7c 24 10          	lea    0x10(%esp),%edi
  403ce6:	89 1c 24             	mov    %ebx,(%esp)
  403ce9:	89 7c 24 04          	mov    %edi,0x4(%esp)
  403ced:	e8 1e ff ff ff       	call   403c10 <___mingw_memalign_base>
  403cf2:	39 c3                	cmp    %eax,%ebx
  403cf4:	74 26                	je     403d1c <___mingw_realloc+0x4c>
  403cf6:	85 f6                	test   %esi,%esi
  403cf8:	74 1e                	je     403d18 <___mingw_realloc+0x48>
  403cfa:	39 74 24 1c          	cmp    %esi,0x1c(%esp)
  403cfe:	72 30                	jb     403d30 <___mingw_realloc+0x60>
  403d00:	e8 17 02 00 00       	call   403f1c <__errno>
  403d05:	c7 00 16 00 00 00    	movl   $0x16,(%eax)
  403d0b:	83 c4 20             	add    $0x20,%esp
  403d0e:	31 c0                	xor    %eax,%eax
  403d10:	5b                   	pop    %ebx
  403d11:	5e                   	pop    %esi
  403d12:	5f                   	pop    %edi
  403d13:	c3                   	ret    
  403d14:	8d 74 26 00          	lea    0x0(%esi,%eiz,1),%esi
  403d18:	8b 5c 24 10          	mov    0x10(%esp),%ebx
  403d1c:	89 74 24 04          	mov    %esi,0x4(%esp)
  403d20:	89 1c 24             	mov    %ebx,(%esp)
  403d23:	ff 15 20 92 40 00    	call   *0x409220
  403d29:	83 c4 20             	add    $0x20,%esp
  403d2c:	5b                   	pop    %ebx
  403d2d:	5e                   	pop    %esi
  403d2e:	5f                   	pop    %edi
  403d2f:	c3                   	ret    
  403d30:	89 74 24 08          	mov    %esi,0x8(%esp)
  403d34:	89 7c 24 04          	mov    %edi,0x4(%esp)
  403d38:	89 1c 24             	mov    %ebx,(%esp)
  403d3b:	e8 10 00 00 00       	call   403d50 <___mingw_memalign_realloc>
  403d40:	83 c4 20             	add    $0x20,%esp
  403d43:	5b                   	pop    %ebx
  403d44:	5e                   	pop    %esi
  403d45:	5f                   	pop    %edi
  403d46:	c3                   	ret    
  403d47:	90                   	nop
  403d48:	90                   	nop
  403d49:	90                   	nop
  403d4a:	90                   	nop
  403d4b:	90                   	nop
  403d4c:	90                   	nop
  403d4d:	90                   	nop
  403d4e:	90                   	nop
  403d4f:	90                   	nop

00403d50 <___mingw_memalign_realloc>:
  403d50:	55                   	push   %ebp
  403d51:	57                   	push   %edi
  403d52:	56                   	push   %esi
  403d53:	53                   	push   %ebx
  403d54:	83 ec 1c             	sub    $0x1c,%esp
  403d57:	8b 74 24 34          	mov    0x34(%esp),%esi
  403d5b:	8b 06                	mov    (%esi),%eax
  403d5d:	89 04 24             	mov    %eax,(%esp)
  403d60:	e8 9f 01 00 00       	call   403f04 <__msize>
  403d65:	8b 56 08             	mov    0x8(%esi),%edx
  403d68:	89 c7                	mov    %eax,%edi
  403d6a:	8b 46 04             	mov    0x4(%esi),%eax
  403d6d:	8d 5a 07             	lea    0x7(%edx),%ebx
  403d70:	83 e0 03             	and    $0x3,%eax
  403d73:	83 f8 03             	cmp    $0x3,%eax
  403d76:	75 03                	jne    403d7b <___mingw_memalign_realloc+0x2b>
  403d78:	8d 5a 0b             	lea    0xb(%edx),%ebx
  403d7b:	8b 44 24 38          	mov    0x38(%esp),%eax
  403d7f:	01 d8                	add    %ebx,%eax
  403d81:	89 44 24 04          	mov    %eax,0x4(%esp)
  403d85:	8b 06                	mov    (%esi),%eax
  403d87:	89 04 24             	mov    %eax,(%esp)
  403d8a:	ff 15 20 92 40 00    	call   *0x409220
  403d90:	8b 16                	mov    (%esi),%edx
  403d92:	39 c2                	cmp    %eax,%edx
  403d94:	0f 84 86 00 00 00    	je     403e20 <___mingw_memalign_realloc+0xd0>
  403d9a:	31 ed                	xor    %ebp,%ebp
  403d9c:	85 c0                	test   %eax,%eax
  403d9e:	74 59                	je     403df9 <___mingw_memalign_realloc+0xa9>
  403da0:	8b 4c 24 30          	mov    0x30(%esp),%ecx
  403da4:	8b 2d 6c 80 40 00    	mov    0x40806c,%ebp
  403daa:	29 d1                	sub    %edx,%ecx
  403dac:	85 ed                	test   %ebp,%ebp
  403dae:	75 58                	jne    403e08 <___mingw_memalign_realloc+0xb8>
  403db0:	a3 6c 80 40 00       	mov    %eax,0x40806c
  403db5:	8b 6e 04             	mov    0x4(%esi),%ebp
  403db8:	03 5e 0c             	add    0xc(%esi),%ebx
  403dbb:	01 c3                	add    %eax,%ebx
  403dbd:	09 c5                	or     %eax,%ebp
  403dbf:	01 c8                	add    %ecx,%eax
  403dc1:	89 2e                	mov    %ebp,(%esi)
  403dc3:	8b 6e 08             	mov    0x8(%esi),%ebp
  403dc6:	f7 dd                	neg    %ebp
  403dc8:	21 eb                	and    %ebp,%ebx
  403dca:	2b 5e 0c             	sub    0xc(%esi),%ebx
  403dcd:	89 dd                	mov    %ebx,%ebp
  403dcf:	39 c3                	cmp    %eax,%ebx
  403dd1:	74 1c                	je     403def <___mingw_memalign_realloc+0x9f>
  403dd3:	2b 54 24 30          	sub    0x30(%esp),%edx
  403dd7:	01 d7                	add    %edx,%edi
  403dd9:	3b 7c 24 38          	cmp    0x38(%esp),%edi
  403ddd:	77 31                	ja     403e10 <___mingw_memalign_realloc+0xc0>
  403ddf:	89 7c 24 08          	mov    %edi,0x8(%esp)
  403de3:	89 44 24 04          	mov    %eax,0x4(%esp)
  403de7:	89 1c 24             	mov    %ebx,(%esp)
  403dea:	e8 d5 00 00 00       	call   403ec4 <_memmove>
  403def:	8b 06                	mov    (%esi),%eax
  403df1:	83 eb 04             	sub    $0x4,%ebx
  403df4:	83 e3 fc             	and    $0xfffffffc,%ebx
  403df7:	89 03                	mov    %eax,(%ebx)
  403df9:	83 c4 1c             	add    $0x1c,%esp
  403dfc:	89 e8                	mov    %ebp,%eax
  403dfe:	5b                   	pop    %ebx
  403dff:	5e                   	pop    %esi
  403e00:	5f                   	pop    %edi
  403e01:	5d                   	pop    %ebp
  403e02:	c3                   	ret    
  403e03:	8d 74 26 00          	lea    0x0(%esi,%eiz,1),%esi
  403e07:	90                   	nop
  403e08:	39 c5                	cmp    %eax,%ebp
  403e0a:	76 a9                	jbe    403db5 <___mingw_memalign_realloc+0x65>
  403e0c:	eb a2                	jmp    403db0 <___mingw_memalign_realloc+0x60>
  403e0e:	66 90                	xchg   %ax,%ax
  403e10:	8b 7c 24 38          	mov    0x38(%esp),%edi
  403e14:	eb c9                	jmp    403ddf <___mingw_memalign_realloc+0x8f>
  403e16:	8d b4 26 00 00 00 00 	lea    0x0(%esi,%eiz,1),%esi
  403e1d:	8d 76 00             	lea    0x0(%esi),%esi
  403e20:	8b 6c 24 30          	mov    0x30(%esp),%ebp
  403e24:	83 c4 1c             	add    $0x1c,%esp
  403e27:	5b                   	pop    %ebx
  403e28:	5e                   	pop    %esi
  403e29:	89 e8                	mov    %ebp,%eax
  403e2b:	5f                   	pop    %edi
  403e2c:	5d                   	pop    %ebp
  403e2d:	c3                   	ret    
  403e2e:	90                   	nop
  403e2f:	90                   	nop

00403e30 <___chkstk_ms>:
  403e30:	51                   	push   %ecx
  403e31:	50                   	push   %eax
  403e32:	3d 00 10 00 00       	cmp    $0x1000,%eax
  403e37:	8d 4c 24 0c          	lea    0xc(%esp),%ecx
  403e3b:	72 15                	jb     403e52 <___chkstk_ms+0x22>
  403e3d:	81 e9 00 10 00 00    	sub    $0x1000,%ecx
  403e43:	83 09 00             	orl    $0x0,(%ecx)
  403e46:	2d 00 10 00 00       	sub    $0x1000,%eax
  403e4b:	3d 00 10 00 00       	cmp    $0x1000,%eax
  403e50:	77 eb                	ja     403e3d <___chkstk_ms+0xd>
  403e52:	29 c1                	sub    %eax,%ecx
  403e54:	83 09 00             	orl    $0x0,(%ecx)
  403e57:	58                   	pop    %eax
  403e58:	59                   	pop    %ecx
  403e59:	c3                   	ret    
  403e5a:	90                   	nop
  403e5b:	90                   	nop

00403e5c <_stricoll>:
  403e5c:	ff 25 8c 91 40 00    	jmp    *0x40918c
  403e62:	90                   	nop
  403e63:	90                   	nop

00403e64 <_strdup>:
  403e64:	ff 25 88 91 40 00    	jmp    *0x409188
  403e6a:	90                   	nop
  403e6b:	90                   	nop

00403e6c <_wcstombs>:
  403e6c:	ff 25 18 92 40 00    	jmp    *0x409218
  403e72:	90                   	nop
  403e73:	90                   	nop

00403e74 <_vfprintf>:
  403e74:	ff 25 14 92 40 00    	jmp    *0x409214
  403e7a:	90                   	nop
  403e7b:	90                   	nop

00403e7c <_tolower>:
  403e7c:	ff 25 10 92 40 00    	jmp    *0x409210
  403e82:	90                   	nop
  403e83:	90                   	nop

00403e84 <_strlen>:
  403e84:	ff 25 0c 92 40 00    	jmp    *0x40920c
  403e8a:	90                   	nop
  403e8b:	90                   	nop

00403e8c <_strcoll>:
  403e8c:	ff 25 08 92 40 00    	jmp    *0x409208
  403e92:	90                   	nop
  403e93:	90                   	nop

00403e94 <_strcmp>:
  403e94:	ff 25 04 92 40 00    	jmp    *0x409204
  403e9a:	90                   	nop
  403e9b:	90                   	nop

00403e9c <_signal>:
  403e9c:	ff 25 00 92 40 00    	jmp    *0x409200
  403ea2:	90                   	nop
  403ea3:	90                   	nop

00403ea4 <_setlocale>:
  403ea4:	ff 25 fc 91 40 00    	jmp    *0x4091fc
  403eaa:	90                   	nop
  403eab:	90                   	nop

00403eac <_scanf>:
  403eac:	ff 25 f8 91 40 00    	jmp    *0x4091f8
  403eb2:	90                   	nop
  403eb3:	90                   	nop

00403eb4 <_puts>:
  403eb4:	ff 25 f4 91 40 00    	jmp    *0x4091f4
  403eba:	90                   	nop
  403ebb:	90                   	nop

00403ebc <_printf>:
  403ebc:	ff 25 f0 91 40 00    	jmp    *0x4091f0
  403ec2:	90                   	nop
  403ec3:	90                   	nop

00403ec4 <_memmove>:
  403ec4:	ff 25 ec 91 40 00    	jmp    *0x4091ec
  403eca:	90                   	nop
  403ecb:	90                   	nop

00403ecc <_memcpy>:
  403ecc:	ff 25 e8 91 40 00    	jmp    *0x4091e8
  403ed2:	90                   	nop
  403ed3:	90                   	nop

00403ed4 <_mbstowcs>:
  403ed4:	ff 25 e4 91 40 00    	jmp    *0x4091e4
  403eda:	90                   	nop
  403edb:	90                   	nop

00403edc <_malloc>:
  403edc:	ff 25 e0 91 40 00    	jmp    *0x4091e0
  403ee2:	90                   	nop
  403ee3:	90                   	nop

00403ee4 <_fwrite>:
  403ee4:	ff 25 dc 91 40 00    	jmp    *0x4091dc
  403eea:	90                   	nop
  403eeb:	90                   	nop

00403eec <_calloc>:
  403eec:	ff 25 d8 91 40 00    	jmp    *0x4091d8
  403ef2:	90                   	nop
  403ef3:	90                   	nop

00403ef4 <_abort>:
  403ef4:	ff 25 d0 91 40 00    	jmp    *0x4091d0
  403efa:	90                   	nop
  403efb:	90                   	nop

00403efc <__setmode>:
  403efc:	ff 25 cc 91 40 00    	jmp    *0x4091cc
  403f02:	90                   	nop
  403f03:	90                   	nop

00403f04 <__msize>:
  403f04:	ff 25 c0 91 40 00    	jmp    *0x4091c0
  403f0a:	90                   	nop
  403f0b:	90                   	nop

00403f0c <__isctype>:
  403f0c:	ff 25 bc 91 40 00    	jmp    *0x4091bc
  403f12:	90                   	nop
  403f13:	90                   	nop

00403f14 <__fullpath>:
  403f14:	ff 25 b4 91 40 00    	jmp    *0x4091b4
  403f1a:	90                   	nop
  403f1b:	90                   	nop

00403f1c <__errno>:
  403f1c:	ff 25 ac 91 40 00    	jmp    *0x4091ac
  403f22:	90                   	nop
  403f23:	90                   	nop

00403f24 <__cexit>:
  403f24:	ff 25 a8 91 40 00    	jmp    *0x4091a8
  403f2a:	90                   	nop
  403f2b:	90                   	nop

00403f2c <___p__fmode>:
  403f2c:	ff 25 a0 91 40 00    	jmp    *0x4091a0
  403f32:	90                   	nop
  403f33:	90                   	nop

00403f34 <___p__environ>:
  403f34:	ff 25 9c 91 40 00    	jmp    *0x40919c
  403f3a:	90                   	nop
  403f3b:	90                   	nop

00403f3c <___getmainargs>:
  403f3c:	ff 25 94 91 40 00    	jmp    *0x409194
  403f42:	90                   	nop
  403f43:	90                   	nop

00403f44 <_VirtualQuery@12>:
  403f44:	ff 25 80 91 40 00    	jmp    *0x409180
  403f4a:	90                   	nop
  403f4b:	90                   	nop

00403f4c <_VirtualProtect@16>:
  403f4c:	ff 25 7c 91 40 00    	jmp    *0x40917c
  403f52:	90                   	nop
  403f53:	90                   	nop

00403f54 <_TlsGetValue@4>:
  403f54:	ff 25 78 91 40 00    	jmp    *0x409178
  403f5a:	90                   	nop
  403f5b:	90                   	nop

00403f5c <_SetUnhandledExceptionFilter@4>:
  403f5c:	ff 25 74 91 40 00    	jmp    *0x409174
  403f62:	90                   	nop
  403f63:	90                   	nop

00403f64 <_LoadLibraryA@4>:
  403f64:	ff 25 70 91 40 00    	jmp    *0x409170
  403f6a:	90                   	nop
  403f6b:	90                   	nop

00403f6c <_LeaveCriticalSection@4>:
  403f6c:	ff 25 6c 91 40 00    	jmp    *0x40916c
  403f72:	90                   	nop
  403f73:	90                   	nop

00403f74 <_InitializeCriticalSection@4>:
  403f74:	ff 25 68 91 40 00    	jmp    *0x409168
  403f7a:	90                   	nop
  403f7b:	90                   	nop

00403f7c <_GetProcAddress@8>:
  403f7c:	ff 25 64 91 40 00    	jmp    *0x409164
  403f82:	90                   	nop
  403f83:	90                   	nop

00403f84 <_GetModuleHandleA@4>:
  403f84:	ff 25 60 91 40 00    	jmp    *0x409160
  403f8a:	90                   	nop
  403f8b:	90                   	nop

00403f8c <_GetLastError@0>:
  403f8c:	ff 25 5c 91 40 00    	jmp    *0x40915c
  403f92:	90                   	nop
  403f93:	90                   	nop

00403f94 <_GetCommandLineA@0>:
  403f94:	ff 25 58 91 40 00    	jmp    *0x409158
  403f9a:	90                   	nop
  403f9b:	90                   	nop

00403f9c <_FreeLibrary@4>:
  403f9c:	ff 25 54 91 40 00    	jmp    *0x409154
  403fa2:	90                   	nop
  403fa3:	90                   	nop

00403fa4 <_FindNextFileA@8>:
  403fa4:	ff 25 50 91 40 00    	jmp    *0x409150
  403faa:	90                   	nop
  403fab:	90                   	nop

00403fac <_FindFirstFileA@8>:
  403fac:	ff 25 4c 91 40 00    	jmp    *0x40914c
  403fb2:	90                   	nop
  403fb3:	90                   	nop

00403fb4 <_FindClose@4>:
  403fb4:	ff 25 48 91 40 00    	jmp    *0x409148
  403fba:	90                   	nop
  403fbb:	90                   	nop

00403fbc <_ExitProcess@4>:
  403fbc:	ff 25 44 91 40 00    	jmp    *0x409144
  403fc2:	90                   	nop
  403fc3:	90                   	nop

00403fc4 <_EnterCriticalSection@4>:
  403fc4:	ff 25 40 91 40 00    	jmp    *0x409140
  403fca:	90                   	nop
  403fcb:	90                   	nop

00403fcc <_DeleteCriticalSection@4>:
  403fcc:	ff 25 3c 91 40 00    	jmp    *0x40913c
  403fd2:	90                   	nop
  403fd3:	90                   	nop

00403fd4 <.text>:
  403fd4:	66 90                	xchg   %ax,%ax
  403fd6:	66 90                	xchg   %ax,%ax
  403fd8:	66 90                	xchg   %ax,%ax
  403fda:	66 90                	xchg   %ax,%ax
  403fdc:	66 90                	xchg   %ax,%ax
  403fde:	66 90                	xchg   %ax,%ax

00403fe0 <_register_frame_ctor>:
  403fe0:	e9 4b d3 ff ff       	jmp    401330 <___gcc_register_frame>
  403fe5:	90                   	nop
  403fe6:	90                   	nop
  403fe7:	90                   	nop
  403fe8:	90                   	nop
  403fe9:	90                   	nop
  403fea:	90                   	nop
  403feb:	90                   	nop
  403fec:	90                   	nop
  403fed:	90                   	nop
  403fee:	90                   	nop
  403fef:	90                   	nop

00403ff0 <__CTOR_LIST__>:
  403ff0:	ff                   	(bad)  
  403ff1:	ff                   	(bad)  
  403ff2:	ff                   	(bad)  
  403ff3:	ff                   	.byte 0xff

00403ff4 <.ctors.65535>:
  403ff4:	e0 3f                	loopne 404035 <__DTOR_LIST__+0x39>
  403ff6:	40                   	inc    %eax
  403ff7:	00 00                	add    %al,(%eax)
  403ff9:	00 00                	add    %al,(%eax)
	...

00403ffc <__DTOR_LIST__>:
  403ffc:	ff                   	(bad)  
  403ffd:	ff                   	(bad)  
  403ffe:	ff                   	(bad)  
  403fff:	ff 00                	incl   (%eax)
  404001:	00 00                	add    %al,(%eax)
	...
